(lp0
(lp1
S'26027'
p2
aI51
aI1
aI23
aI47
aI36
aI58
aI44
aI38
aI36
aa(lp3
S'01005'
p4
aI30
aI3
aI0
aI0
aI2
aI105
aI366
aI217
aI69
aa(lp5
S'01015'
p6
aI15
aI3
aI15
aI9
aI17
aI33
aI10
aI4
aa(lp7
S'01016'
p8
aI2
aI0
aI3
aI0
aI2
aI1
aI0
aI0
aa(lp9
S'01017'
p10
aI22
aI1
aI1
aI3
aI3
aI0
aI1
aI0
aI1
aa(lp11
S'01025'
p12
aI4
aI0
aI2
aI1
aI8
aI13
aI22
aI8
aa(lp13
S'01035'
p14
aI78
aI3
aI15
aI55
aI22
aI61
aI62
aI39
aI15
aa(lp15
S'01037'
p16
aI3
aI0
aI2
aI5
aI7
aI6
aI4
aI4
aa(lp17
S'01666'
p18
aI2
aI0
aI0
aI1
aI0
aI2
aI22
aI21
aa(lp19
S'02101'
p20
aI2
aI1
aI3
aI1
aI2
aI1
aI1
aI0
aa(lp21
S'02102'
p22
aI16
aI2
aI5
aI10
aI1
aI8
aI27
aI28
aI40
aa(lp23
S'02105'
p24
aI17
aI1
aI3
aI27
aI13
aI18
aI43
aI33
aI29
aa(lp25
S'02121'
p26
aI4
aI0
aI0
aI0
aI10
aI13
aI24
aI18
aa(lp27
S'02122'
p28
aI4
aI1
aI1
aI0
aI9
aI10
aI34
aI18
aa(lp29
S'02131'
p30
aI6
aI0
aI0
aI6
aI18
aI25
aI34
aI7
aa(lp31
S'02138'
p32
aI1
aI3
aI9
aI0
aI5
aI2
aI1
aI0
aa(lp33
S'02139'
p34
aI18
aI1
aI1
aI6
aI5
aI9
aI17
aI24
aI12
aa(lp35
S'02141'
p36
aI39
aI3
aI21
aI13
aI35
aI23
aI10
aI2
aa(lp37
S'02148'
p38
aI0
aI0
aI0
aI3
aI0
aI28
aI23
aa(lp39
S'02155'
p40
aI9
aI1
aI0
aI5
aI5
aI8
aI11
aI6
aI5
aa(lp41
S'02156'
p42
aI6
aI0
aI3
aI0
aI5
aI25
aI14
aI14
aa(lp43
S'02157'
p44
aI11
aI0
aI2
aI2
aI2
aI4
aI3
aI0
aa(lp45
S'02158'
p46
aI6
aI2
aI0
aI1
aI1
aI2
aI0
aI0
aa(lp47
S'02159'
p48
aI10
aI1
aI0
aI7
aI3
aI11
aI9
aI5
aI3
aa(lp49
S'02161'
p50
aI30
aI0
aI2
aI7
aI19
aI36
aI20
aI19
aa(lp51
S'02170'
p52
aI17
aI2
aI0
aI1
aI4
aI16
aI34
aI27
aI22
aa(lp53
S'02190'
p54
aI3
aI0
aI2
aI0
aI0
aI12
aI20
aI13
aa(lp55
S'02350'
p56
aI6
aI0
aI1
aI2
aI6
aI35
aI22
aI16
aa(lp57
S'02402'
p58
aI23
aI1
aI4
aI10
aI18
aI26
aI39
aI39
aI39
aa(lp59
S'02403'
p60
aI23
aI14
aI48
aI25
aI48
aI67
aI41
aI26
aa(lp61
S'02405'
p62
aI40
aI1
aI14
aI42
aI23
aI14
aI22
aI5
aI4
aa(lp63
S'02413'
p64
aI1
aI2
aI2
aI6
aI6
aI2
aI7
aI5
aa(lp65
S'02450'
p66
aI60
aI1
aI6
aI13
aI15
aI28
aI36
aI33
aI12
aa(lp67
S'02502'
p68
aI6
aI2
aI10
aI12
aI10
aI12
aI9
aI15
aa(lp69
S'02511'
p70
aI6
aI3
aI0
aI7
aI9
aI5
aI24
aI4
aI3
aa(lp71
S'02512'
p72
aI4
aI1
aI1
aI0
aI0
aI1
aI12
aI13
aI10
aa(lp73
S'02525'
p74
aI8
aI0
aI5
aI0
aI3
aI19
aI27
aI6
aa(lp75
S'02526'
p76
aI11
aI0
aI7
aI16
aI8
aI13
aI7
aI10
aa(lp77
S'02601'
p78
aI38
aI2
aI6
aI20
aI4
aI16
aI21
aI24
aI12
aa(lp79
S'02609'
p80
aI7
aI1
aI3
aI5
aI10
aI14
aI8
aI3
aa(lp81
S'02631'
p82
aI20
aI2
aI27
aI10
aI4
aI30
aI52
aI83
aI34
aa(lp83
S'02632'
p84
aI2
aI8
aI11
aI6
aI5
aI15
aI20
aI23
aa(lp85
S'02633'
p86
aI15
aI19
aI10
aI4
aI20
aI38
aI77
aI98
aa(lp87
S'02634'
p88
aI0
aI0
aI0
aI0
aI1
aI2
aI6
aa(lp89
S'10020'
p90
aI39
aI10
aI25
aI31
aI31
aI45
aI30
aI12
aa(lp91
S'10022'
p92
aI64
aI3
aI14
aI44
aI43
aI67
aI84
aI73
aI29
aa(lp93
S'10024'
p94
aI27
aI2
aI10
aI10
aI5
aI18
aI23
aI16
aI7
aa(lp95
S'10031'
p96
aI2
aI0
aI2
aI0
aI8
aI17
aI18
aI15
aa(lp97
S'10033'
p98
aI4
aI2
aI3
aI2
aI1
aI0
aI0
aI0
aa(lp99
S'10034'
p100
aI10
aI0
aI2
aI8
aI17
aI26
aI34
aI29
aa(lp101
S'10036'
p102
aI11
aI1
aI0
aI3
aI1
aI3
aI3
aI2
aI0
aa(lp103
S'10044'
p104
aI1
aI1
aI0
aI5
aI7
aI9
aI5
aI2
aa(lp105
S'10050'
p106
aI16
aI1
aI6
aI15
aI20
aI20
aI20
aI20
aI10
aa(lp107
S'10052'
p108
aI1
aI0
aI3
aI2
aI3
aI6
aI5
aI3
aa(lp109
S'10054'
p110
aI6
aI1
aI5
aI0
aI3
aI3
aI7
aI6
aa(lp111
S'10102'
p112
aI21
aI3
aI14
aI20
aI22
aI11
aI13
aI6
aI6
aa(lp113
S'10303'
p114
aI3
aI3
aI2
aI0
aI1
aI4
aI0
aI2
aa(lp115
S'10347'
p116
aI4
aI0
aI0
aI0
aI5
aI5
aI0
aI4
aa(lp117
S'10420'
p118
aI2
aI0
aI0
aI0
aI1
aI9
aI4
aI1
aa(lp119
S'11000'
p120
aI1
aI0
aI0
aI1
aI18
aI43
aI3
aa(lp121
S'11010'
p122
aI2
aI0
aI0
aI0
aI0
aI18
aI24
aI22
aa(lp123
S'11031'
p124
aI7
aI0
aI1
aI1
aI0
aI21
aI46
aI6
aa(lp125
S'11112'
p126
aI0
aI2
aI1
aI5
aI10
aI9
aI2
aa(lp127
S'11121'
p128
aI9
aI2
aI2
aI8
aI17
aI42
aI16
aI4
aa(lp129
S'11141'
p130
aI2
aI0
aI0
aI2
aI1
aI5
aI0
aI0
aa(lp131
S'11305'
p132
aI4
aI0
aI7
aI2
aI2
aI1
aI0
aI0
aa(lp133
S'11311'
p134
aI10
aI1
aI4
aI6
aI11
aI10
aI9
aI16
aI34
aa(lp135
S'11318'
p136
aI1
aI1
aI4
aI3
aI6
aI20
aI10
aI5
aa(lp137
S'11341'
p138
aI4
aI0
aI13
aI6
aI1
aI0
aI0
aI0
aa(lp139
S'11342'
p140
aI9
aI8
aI32
aI14
aI8
aI8
aI3
aI0
aa(lp141
S'11343'
p142
aI9
aI3
aI5
aI1
aI1
aI0
aI0
aI0
aa(lp143
S'11411'
p144
aI10
aI5
aI15
aI8
aI8
aI25
aI14
aI4
aa(lp145
S'11450'
p146
aI1
aI0
aI1
aI2
aI5
aI3
aI0
aI2
aa(lp147
S'11462'
p148
aI10
aI1
aI11
aI13
aI14
aI13
aI13
aI4
aa(lp149
S'11463'
p150
aI2
aI0
aI0
aI0
aI0
aI5
aI10
aI44
aa(lp151
S'11561'
p152
aI4
aI0
aI0
aI0
aI4
aI23
aI27
aI0
aa(lp153
S'11562'
p154
aI23
aI17
aI24
aI27
aI19
aI23
aI13
aI9
aa(lp155
S'11691'
p156
aI0
aI0
aI0
aI0
aI10
aI27
aI12
aa(lp157
S'11990'
p158
aI1
aI1
aI1
aI0
aI29
aI20
aI3
aa(lp159
S'11993'
p160
aI1
aI0
aI1
aI0
aI6
aI31
aI15
aI0
aa(lp161
S'11994'
p162
aI0
aI3
aI0
aI0
aI26
aI15
aI8
aa(lp163
S'11995'
p164
aI0
aI0
aI0
aI4
aI11
aI15
aI8
aa(lp165
S'11996'
p166
aI1
aI0
aI0
aI0
aI1
aI17
aI14
aI3
aa(lp167
S'11997'
p168
aI3
aI0
aI0
aI0
aI16
aI42
aI0
aa(lp169
S'12000'
p170
aI1
aI0
aI0
aI0
aI19
aI27
aI2
aa(lp171
S'12003'
p172
aI2
aI0
aI0
aI0
aI0
aI20
aI24
aI0
aa(lp173
S'12102'
p174
aI1
aI0
aI2
aI5
aI10
aI16
aI10
aI8
aa(lp175
S'12134'
p176
aI0
aI3
aI1
aI1
aI12
aI7
aI2
aa(lp177
S'12139'
p178
aI4
aI0
aI4
aI2
aI2
aI19
aI18
aI7
aa(lp179
S'12202'
p180
aI1
aI0
aI0
aI0
aI7
aI23
aI20
aI7
aa(lp181
S'12203'
p182
aI2
aI0
aI0
aI0
aI2
aI7
aI15
aI12
aa(lp183
S'12205'
p184
aI1
aI0
aI0
aI5
aI10
aI13
aI9
aI4
aa(lp185
S'12210'
p186
aI0
aI0
aI0
aI10
aI11
aI21
aI0
aa(lp187
S'12320'
p188
aI2
aI0
aI7
aI5
aI9
aI25
aI7
aI5
aa(lp189
S'23561'
p190
aI0
aI0
aI0
aI0
aI6
aI5
aI4
aa(lp191
S'23711'
p192
aI0
aI0
aI1
aI0
aI4
aI0
aI0
aa(lp193
S'23732'
p194
aI6
aI0
aI3
aI1
aI1
aI2
aI0
aI1
aa(lp195
S'24001'
p196
aI6
aI0
aI3
aI1
aI1
aI0
aI1
aI0
aa(lp197
S'25104'
p198
aI1
aI0
aI0
aI0
aI2
aI10
aI5
aI0
aa(lp199
S'26000'
p200
aI29
aI2
aI3
aI12
aI9
aI15
aI24
aI28
aI20
aa(lp201
S'26006'
p202
aI0
aI2
aI1
aI10
aI30
aI19
aI4
aa(lp203
S'26010'
p204
aI0
aI0
aI0
aI4
aI0
aI11
aI34
aa(lp205
g2
aI51
aI1
aI23
aI47
aI36
aI58
aI44
aI38
aI36
aa(lp206
S'26050'
p207
aI4
aI1
aI6
aI8
aI8
aI2
aI1
aI0
aa(lp208
S'26124'
p209
aI12
aI2
aI8
aI4
aI4
aI6
aI10
aI28
aI13
aa(lp210
S'26201'
p211
aI7
aI1
aI2
aI19
aI13
aI20
aI20
aI9
aI8
aa(lp212
S'26202'
p213
aI10
aI2
aI14
aI1
aI1
aI9
aI8
aI15
aI6
aa(lp214
S'26222'
p215
aI1
aI0
aI1
aI4
aI2
aI3
aI3
aI0
aa(lp216
S'26261'
p217
aI3
aI2
aI1
aI1
aI0
aI2
aI2
aI1
aI5
aa(lp218
S'26400'
p219
aI56
aI4
aI33
aI46
aI22
aI43
aI47
aI35
aI35
aa(lp220
S'26411'
p221
aI7
aI1
aI0
aI0
aI2
aI2
aI2
aI0
aI1
aa(lp222
S'26426'
p223
aI12
aI1
aI5
aI10
aI8
aI22
aI13
aI17
aI5
aa(lp224
S'26428'
p225
aI6
aI1
aI7
aI7
aI5
aI5
aI9
aI7
aI7
aa(lp226
S'26499'
p227
aI0
aI2
aI1
aI2
aI19
aI10
aI3
aa(lp228
S'27002'
p229
aI5
aI1
aI2
aI2
aI1
aI4
aI2
aI0
aa(lp230
S'27004'
p231
aI3
aI0
aI2
aI3
aI1
aI16
aI24
aI19
aa(lp232
S'27007'
p233
aI3
aI0
aI0
aI0
aI8
aI18
aI20
aI9
aa(lp234
S'27008'
p235
aI12
aI2
aI3
aI4
aI6
aI21
aI12
aI4
aa(lp236
S'27015'
p237
aI1
aI0
aI0
aI0
aI2
aI7
aI51
aI43
aa(lp238
S'27022'
p239
aI40
aI7
aI37
aI27
aI23
aI33
aI47
aI21
aI25
aa(lp240
S'27026'
p241
aI13
aI1
aI1
aI2
aI6
aI2
aI0
aI0
aI0
aa(lp242
S'27027'
p243
aI1
aI0
aI0
aI0
aI0
aI12
aI41
aI30
aa(lp244
S'27034'
p245
aI10
aI0
aI15
aI7
aI11
aI19
aI17
aI13
aa(lp246
S'27040'
p247
aI6
aI1
aI3
aI2
aI3
aI14
aI21
aI13
aa(lp248
S'27042'
p249
aI1
aI0
aI0
aI4
aI13
aI10
aI25
aI6
aa(lp250
S'27051'
p251
aI2
aI2
aI3
aI2
aI13
aI19
aI25
aI13
aa(lp252
S'27461'
p253
aI0
aI0
aI0
aI0
aI3
aI12
aI17
aa(lp254
S'27611'
p255
aI24
aI2
aI8
aI6
aI10
aI8
aI24
aI27
aI33
aa(lp256
S'27633'
p257
aI4
aI6
aI1
aI9
aI5
aI14
aI2
aI9
aa(lp258
S'28001'
p259
aI3
aI0
aI0
aI1
aI4
aI25
aI25
aI9
aa(lp260
S'28020'
p261
aI3
aI7
aI1
aI13
aI12
aI12
aI13
aI6
aa(lp262
S'28025'
p263
aI16
aI2
aI2
aI12
aI14
aI12
aI13
aI15
aI14
aa(lp264
S'28121'
p265
aI0
aI0
aI0
aI0
aI5
aI2
aI3
aa(lp266
S'28122'
p267
aI3
aI0
aI0
aI0
aI0
aI3
aI1
aI1
aa(lp268
S'28123'
p269
aI2
aI0
aI0
aI0
aI0
aI16
aI42
aI10
aa(lp270
S'28124'
p271
aI0
aI0
aI0
aI0
aI6
aI27
aI8
aa(lp272
S'28125'
p273
aI0
aI1
aI1
aI0
aI10
aI8
aI4
aa(lp274
S'28140'
p275
aI1
aI1
aI8
aI5
aI5
aI7
aI8
aI4
aa(lp276
S'28150'
p277
aI0
aI3
aI3
aI7
aI23
aI23
aI7
aa(lp278
S'28160'
p279
aI7
aI0
aI7
aI1
aI5
aI16
aI11
aI4
aa(lp280
S'28221'
p281
aI1
aI0
aI0
aI0
aI0
aI1
aI9
aI20
aa(lp282
S'30010'
p283
aI11
aI0
aI3
aI2
aI5
aI22
aI21
aI5
aa(lp284
S'30020'
p285
aI9
aI1
aI0
aI2
aI3
aI16
aI24
aI18
aI6
aa(lp286
S'30110'
p287
aI0
aI0
aI1
aI1
aI5
aI16
aI16
aa(lp288
S'30120'
p289
aI8
aI0
aI1
aI2
aI7
aI12
aI17
aI18
aa(lp290
S'30130'
p291
aI4
aI0
aI2
aI3
aI8
aI14
aI14
aI7
aa(lp292
S'30140'
p293
aI2
aI23
aI3
aI3
aI5
aI13
aI12
aI10
aa(lp294
S'30150'
p295
aI5
aI0
aI0
aI0
aI2
aI12
aI15
aI12
aa(lp296
S'30160'
p297
aI9
aI1
aI6
aI2
aI9
aI19
aI11
aI5
aa(lp298
S'31001'
p299
aI16
aI1
aI7
aI6
aI3
aI6
aI0
aI0
aa(lp300
S'31003'
p301
aI16
aI1
aI12
aI11
aI14
aI12
aI17
aI14
aI4
aa(lp302
S'31015'
p303
aI0
aI0
aI1
aI4
aI8
aI14
aI24
aa(lp304
S'31300'
p305
aI5
aI1
aI1
aI1
aI1
aI9
aI25
aI14
aI6
aa(lp306
S'31351'
p307
aI0
aI0
aI3
aI2
aI11
aI7
aI8
aa(lp308
S'31373'
p309
aI2
aI0
aI0
aI0
aI2
aI15
aI22
aI7
aa(lp310
S'31400'
p311
aI6
aI1
aI1
aI12
aI4
aI17
aI15
aI16
aI6
aa(lp312
S'31405'
p313
aI5
aI2
aI3
aI5
aI3
aI12
aI9
aI8
aa(lp314
S'31501'
p315
aI4
aI0
aI5
aI1
aI4
aI8
aI12
aI20
aa(lp316
S'31502'
p317
aI16
aI1
aI0
aI0
aI2
aI10
aI14
aI13
aa(lp318
S'31520'
p319
aI6
aI1
aI1
aI3
aI4
aI6
aI20
aI22
aI7
aa(lp320
S'31522'
p321
aI1
aI0
aI0
aI0
aI1
aI7
aI9
aI4
aa(lp322
S'31540'
p323
aI0
aI2
aI4
aI9
aI13
aI20
aI11
aa(lp324
S'31605'
p325
aI12
aI1
aI10
aI16
aI8
aI24
aI38
aI21
aI11
aa(lp326
S'31606'
p327
aI3
aI0
aI0
aI4
aI9
aI15
aI19
aI7
aa(lp328
S'31631'
p329
aI2
aI2
aI5
aI0
aI3
aI0
aI0
aI0
aa(lp330
S'31700'
p331
aI1
aI0
aI0
aI0
aI12
aI12
aI8
aI3
aa(lp332
S'33236'
p333
aI0
aI0
aI0
aI1
aI7
aI2
aI0
aa(lp334
S'33253'
p335
aI3
aI1
aI0
aI2
aI1
aI3
aI13
aI9
aI4
aa(lp336
S'33255'
p337
aI3
aI0
aI0
aI3
aI0
aI1
aI1
aI0
aa(lp338
S'33257'
p339
aI5
aI0
aI2
aI1
aI1
aI3
aI1
aI2
aa(lp340
S'33323'
p341
aI1
aI0
aI1
aI1
aI7
aI5
aI6
aI1
aa(lp342
S'33481'
p343
aI1
aI0
aI0
aI1
aI0
aI6
aI5
aI2
aa(lp344
S'33482'
p345
aI0
aI0
aI0
aI0
aI3
aI3
aI1
aa(lp346
S'34020'
p347
aI24
aI3
aI7
aI9
aI17
aI16
aI9
aI14
aI9
aa(lp348
S'34029'
p349
aI1
aI0
aI0
aI0
aI1
aI0
aI7
aI0
aa(lp350
S'34031'
p351
aI4
aI0
aI4
aI2
aI1
aI4
aI3
aI3
aa(lp352
S'34120'
p353
aI5
aI0
aI0
aI1
aI3
aI6
aI2
aI0
aa(lp354
S'34127'
p355
aI4
aI0
aI0
aI0
aI1
aI4
aI3
aI3
aa(lp356
S'34210'
p357
aI16
aI10
aI4
aI2
aI8
aI8
aI2
aI0
aa(lp358
S'34220'
p359
aI0
aI0
aI4
aI1
aI7
aI7
aI4
aa(lp360
S'34229'
p361
aI2
aI0
aI4
aI13
aI5
aI9
aI0
aa(lp362
S'34311'
p363
aI3
aI0
aI0
aI0
aI0
aI2
aI3
aI0
aa(lp364
S'34330'
p365
aI5
aI0
aI1
aI3
aI6
aI10
aI11
aI10
aa(lp366
S'41000'
p367
aI0
aI2
aI0
aI4
aI7
aI38
aI19
aa(lp368
S'41010'
p369
aI1
aI0
aI0
aI0
aI0
aI15
aI34
aI12
aa(lp370
S'41015'
p371
aI1
aI0
aI1
aI1
aI0
aI2
aI1
aI0
aa(lp372
S'41020'
p373
aI1
aI0
aI0
aI0
aI0
aI13
aI29
aI15
aa(lp374
S'41030'
p375
aI2
aI0
aI0
aI0
aI0
aI6
aI29
aI24
aa(lp376
S'41031'
p377
aI2
aI0
aI0
aI4
aI16
aI19
aI16
aI6
aa(lp378
S'41035'
p379
aI2
aI0
aI0
aI1
aI3
aI10
aI21
aI18
aa(lp380
S'41045'
p381
aI7
aI0
aI4
aI4
aI11
aI9
aI8
aI7
aa(lp382
S'41051'
p383
aI0
aI0
aI0
aI2
aI7
aI21
aI5
aa(lp384
S'41102'
p385
aI3
aI1
aI5
aI14
aI25
aI34
aI18
aI7
aa(lp386
S'41202'
p387
aI2
aI1
aI3
aI6
aI4
aI1
aI1
aa(lp388
S'41203'
p389
aI8
aI1
aI1
aI1
aI5
aI13
aI21
aI21
aa(lp390
S'41263'
p391
aI0
aI1
aI0
aI0
aI8
aI9
aI2
aa(lp392
S'41271'
p393
aI1
aI0
aI0
aI0
aI3
aI4
aI4
aI2
aa(lp394
S'41280'
p395
aI0
aI0
aI0
aI0
aI1
aI7
aI3
aa(lp396
S'41312'
p397
aI10
aI0
aI7
aI5
aI13
aI17
aI14
aI6
aa(lp398
S'41344'
p399
aI1
aI0
aI0
aI1
aI5
aI7
aI5
aI4
aa(lp400
S'41401'
p401
aI5
aI0
aI0
aI5
aI11
aI5
aI12
aI13
aa(lp402
S'41402'
p403
aI1
aI0
aI1
aI0
aI0
aI3
aI5
aI1
aa(lp404
S'41409'
p405
aI1
aI0
aI0
aI1
aI2
aI3
aI5
aI1
aa(lp406
S'41422'
p407
aI6
aI1
aI1
aI2
aI2
aI3
aI4
aI5
aa(lp408
S'41501'
p409
aI20
aI9
aI20
aI18
aI19
aI17
aI11
aI5
aa(lp410
S'41502'
p411
aI7
aI0
aI5
aI3
aI1
aI0
aI0
aI0
aa(lp412
S'41511'
p413
aI4
aI1
aI3
aI6
aI7
aI17
aI27
aI13
aa(lp414
S'41560'
p415
aI2
aI5
aI1
aI6
aI11
aI17
aI7
aI1
aa(lp416
S'41603'
p417
aI1
aI0
aI0
aI0
aI0
aI12
aI22
aI8
aa(lp418
S'41612'
p419
aI1
aI0
aI0
aI0
aI2
aI12
aI42
aI14
aa(lp420
S'41616'
p421
aI2
aI0
aI0
aI0
aI8
aI20
aI10
aI4
aa(lp422
S'41617'
p423
aI7
aI0
aI0
aI0
aI5
aI10
aI16
aI9
aa(lp424
S'41618'
p425
aI2
aI0
aI0
aI0
aI1
aI20
aI28
aI10
aa(lp426
S'41650'
p427
aI3
aI0
aI1
aI5
aI3
aI7
aI6
aI1
aa(lp428
S'41659'
p429
aI3
aI0
aI1
aI1
aI9
aI23
aI14
aI6
aa(lp430
S'41704'
p431
aI8
aI0
aI0
aI5
aI4
aI6
aI2
aI1
aa(lp432
S'41713'
p433
aI12
aI1
aI5
aI6
aI9
aI31
aI12
aI4
aa(lp434
S'41801'
p435
aI6
aI0
aI0
aI0
aI0
aI8
aI28
aI24
aa(lp436
S'41812'
p437
aI2
aI0
aI0
aI2
aI14
aI17
aI28
aI8
aa(lp438
S'41814'
p439
aI3
aI1
aI2
aI2
aI9
aI24
aI21
aI8
aa(lp440
S'41842'
p441
aI2
aI0
aI0
aI0
aI0
aI1
aI5
aI1
aa(lp442
S'42005'
p443
aI2
aI1
aI0
aI1
aI1
aI2
aI0
aI0
aa(lp444
S'42011'
p445
aI1
aI1
aI0
aI0
aI0
aI2
aI28
aI30
aI1
aa(lp446
S'42021'
p447
aI3
aI0
aI0
aI0
aI6
aI32
aI14
aI4
aa(lp448
S'42042'
p449
aI0
aI0
aI1
aI3
aI20
aI30
aI8
aa(lp450
S'42062'
p451
aI4
aI0
aI0
aI2
aI4
aI20
aI24
aI6
aa(lp452
S'42101'
p453
aI34
aI1
aI0
aI11
aI5
aI11
aI33
aI23
aI10
aa(lp454
S'42107'
p455
aI7
aI0
aI0
aI2
aI2
aI6
aI7
aI10
aa(lp456
S'42270'
p457
aI1
aI0
aI0
aI6
aI11
aI19
aI9
aI9
aa(lp458
S'42340'
p459
aI0
aI0
aI0
aI0
aI13
aI12
aI4
aa(lp460
S'42406'
p461
aI2
aI1
aI0
aI0
aI0
aI1
aI7
aI23
aI8
aa(lp462
S'42415'
p463
aI33
aI1
aI22
aI26
aI10
aI13
aI8
aI6
aa(lp464
S'42421'
p465
aI5
aI0
aI0
aI1
aI7
aI41
aI20
aI4
aa(lp466
S'42429'
p467
aI8
aI0
aI0
aI0
aI1
aI17
aI35
aI10
aa(lp468
S'42430'
p469
aI12
aI0
aI0
aI0
aI6
aI107
aI114
aI21
aa(lp470
S'42580'
p471
aI2
aI0
aI0
aI0
aI0
aI6
aI9
aI7
aa(lp472
S'42582'
p473
aI9
aI0
aI2
aI3
aI13
aI22
aI26
aI21
aa(lp474
S'42583'
p475
aI0
aI0
aI1
aI8
aI4
aI8
aI5
aa(lp476
S'42584'
p477
aI0
aI0
aI0
aI0
aI6
aI12
aI6
aa(lp478
S'42610'
p479
aI35
aI6
aI10
aI29
aI55
aI121
aI77
aI47
aa(lp480
S'46000'
p481
aI1
aI0
aI0
aI1
aI0
aI10
aI6
aI0
aa(lp482
S'KU002'
p483
aI3
aI4
aI2
aI1
aI2
aI0
aI0
aa(lp484
S'KU003'
p485
aI24
aI1
aI4
aI8
aI13
aI10
aI8
aI4
aI1
aa(lp486
S'KU004'
p487
aI5
aI1
aI1
aI0
aI2
aI2
aI0
aI0
aa(lp488
S'KU005'
p489
aI7
aI2
aI1
aI3
aI4
aI9
aI18
aI12
aa(lp490
S'KU010'
p491
aI1
aI0
aI1
aI1
aI1
aI1
aI0
aa(lp492
S'KU011'
p493
aI1
aI1
aI5
aI4
aI6
aI2
aI0
aI0
aa.