(lp0
(lp1
S'01005'
p2
aI1048
aI30
aI3
aI0
aI278
aI0
aI0
aI2
aI105
aI366
aI217
aI69
aa(lp3
S'01015'
p4
aI91
aI15
aI0
aI0
aI0
aI3
aI15
aI9
aI17
aI33
aI10
aI4
aa(lp5
S'01016'
p6
aI6
aI2
aI0
aI0
aI0
aI0
aI3
aI0
aI2
aI1
aI0
aI0
aa(lp7
S'01017'
p8
aI9
aI22
aI1
aI0
aI0
aI1
aI3
aI3
aI0
aI1
aI0
aI1
aa(lp9
S'01025'
p10
aI54
aI4
aI0
aI0
aI0
aI0
aI2
aI1
aI8
aI13
aI22
aI8
aa(lp11
S'01035'
p12
aI269
aI78
aI3
aI0
aI0
aI15
aI55
aI22
aI61
aI62
aI39
aI15
aa(lp13
S'01037'
p14
aI28
aI3
aI0
aI0
aI0
aI0
aI2
aI5
aI7
aI6
aI4
aI4
aa(lp15
S'01666'
p16
aI46
aI2
aI0
aI0
aI0
aI0
aI0
aI1
aI0
aI2
aI22
aI21
aa(lp17
S'02101'
p18
aI9
aI2
aI0
aI0
aI0
aI1
aI3
aI1
aI2
aI1
aI1
aI0
aa(lp19
S'02102'
p20
aI119
aI16
aI2
aI0
aI0
aI5
aI10
aI1
aI8
aI27
aI28
aI40
aa(lp21
S'02105'
p22
aI222
aI17
aI1
aI0
aI0
aI3
aI27
aI13
aI18
aI43
aI33
aI29
aa(lp23
S'02121'
p24
aI65
aI4
aI0
aI0
aI0
aI0
aI0
aI0
aI10
aI13
aI24
aI18
aa(lp25
S'02122'
p26
aI73
aI4
aI0
aI0
aI0
aI1
aI1
aI0
aI9
aI10
aI34
aI18
aa(lp27
S'02128'
p28
aI49
aI4
aI0
aI49
aI0
aI0
aI0
aI0
aI0
aI0
aI0
aI0
aa(lp29
S'02131'
p30
aI90
aI6
aI0
aI0
aI0
aI0
aI0
aI6
aI18
aI25
aI34
aI7
aa(lp31
S'02138'
p32
aI32
aI1
aI0
aI0
aI0
aI3
aI9
aI0
aI5
aI2
aI1
aI0
aa(lp33
S'02139'
p34
aI74
aI18
aI1
aI0
aI0
aI1
aI6
aI5
aI9
aI17
aI24
aI12
aa(lp35
S'02141'
p36
aI107
aI39
aI0
aI0
aI0
aI3
aI21
aI13
aI35
aI23
aI10
aI2
aa(lp37
S'02148'
p38
aI55
aI0
aI0
aI0
aI1
aI0
aI0
aI0
aI3
aI0
aI28
aI23
aa(lp39
S'02155'
p40
aI40
aI9
aI1
aI0
aI0
aI0
aI5
aI5
aI8
aI11
aI6
aI5
aa(lp41
S'02156'
p42
aI61
aI6
aI0
aI0
aI0
aI0
aI3
aI0
aI5
aI25
aI14
aI14
aa(lp43
S'02157'
p44
aI13
aI11
aI0
aI0
aI0
aI0
aI2
aI2
aI2
aI4
aI3
aI0
aa(lp45
S'02158'
p46
aI6
aI6
aI0
aI0
aI0
aI2
aI0
aI1
aI1
aI2
aI0
aI0
aa(lp47
S'02159'
p48
aI38
aI10
aI1
aI0
aI0
aI0
aI7
aI3
aI11
aI9
aI5
aI3
aa(lp49
S'02161'
p50
aI103
aI30
aI0
aI0
aI0
aI0
aI2
aI7
aI19
aI36
aI20
aI19
aa(lp51
S'02170'
p52
aI104
aI17
aI2
aI0
aI0
aI0
aI1
aI4
aI16
aI34
aI27
aI22
aa(lp53
S'02190'
p54
aI47
aI3
aI0
aI0
aI0
aI0
aI2
aI0
aI0
aI12
aI20
aI13
aa(lp55
S'02350'
p56
aI82
aI6
aI0
aI0
aI0
aI0
aI1
aI2
aI6
aI35
aI22
aI16
aa(lp57
S'02402'
p58
aI216
aI23
aI1
aI0
aI0
aI4
aI10
aI18
aI26
aI39
aI39
aI39
aa(lp59
S'02403'
p60
aI303
aI23
aI0
aI0
aI0
aI14
aI48
aI25
aI48
aI67
aI41
aI26
aa(lp61
S'02405'
p62
aI135
aI40
aI1
aI0
aI0
aI14
aI42
aI23
aI14
aI22
aI5
aI4
aa(lp63
S'02413'
p64
aI30
aI1
aI0
aI0
aI0
aI2
aI2
aI6
aI6
aI2
aI7
aI5
aa(lp65
S'02450'
p66
aI143
aI60
aI1
aI0
aI0
aI6
aI13
aI15
aI28
aI36
aI33
aI12
aa(lp67
S'02502'
p68
aI70
aI6
aI0
aI0
aI0
aI2
aI10
aI12
aI10
aI12
aI9
aI15
aa(lp69
S'02511'
p70
aI52
aI6
aI3
aI0
aI0
aI0
aI7
aI9
aI5
aI24
aI4
aI3
aa(lp71
S'02512'
p72
aI37
aI4
aI1
aI0
aI0
aI1
aI0
aI0
aI1
aI12
aI13
aI10
aa(lp73
S'02525'
p74
aI60
aI8
aI0
aI0
aI0
aI0
aI5
aI0
aI3
aI19
aI27
aI6
aa(lp75
S'02526'
p76
aI61
aI11
aI0
aI0
aI0
aI0
aI7
aI16
aI8
aI13
aI7
aI10
aa(lp77
S'02601'
p78
aI103
aI38
aI2
aI0
aI0
aI6
aI20
aI4
aI16
aI21
aI24
aI12
aa(lp79
S'02609'
p80
aI44
aI7
aI0
aI0
aI0
aI1
aI3
aI5
aI10
aI14
aI8
aI3
aa(lp81
S'02631'
p82
aI240
aI20
aI2
aI0
aI0
aI27
aI10
aI4
aI30
aI52
aI83
aI34
aa(lp83
S'02632'
p84
aI88
aI2
aI0
aI0
aI0
aI8
aI11
aI6
aI5
aI15
aI20
aI23
aa(lp85
S'02633'
p86
aI266
aI15
aI0
aI0
aI0
aI19
aI10
aI4
aI20
aI38
aI77
aI98
aa(lp87
S'02634'
p88
aI9
aI0
aI0
aI0
aI0
aI0
aI0
aI0
aI0
aI1
aI2
aI6
aa(lp89
S'10020'
p90
aI184
aI39
aI0
aI0
aI0
aI10
aI25
aI31
aI31
aI45
aI30
aI12
aa(lp91
S'10022'
p92
aI354
aI64
aI3
aI0
aI0
aI14
aI44
aI43
aI67
aI84
aI73
aI29
aa(lp93
S'10024'
p94
aI89
aI27
aI2
aI0
aI0
aI10
aI10
aI5
aI18
aI23
aI16
aI7
aa(lp95
S'10031'
p96
aI60
aI2
aI0
aI0
aI0
aI0
aI2
aI0
aI8
aI17
aI18
aI15
aa(lp97
S'10033'
p98
aI8
aI4
aI0
aI0
aI0
aI2
aI3
aI2
aI1
aI0
aI0
aI0
aa(lp99
S'10034'
p100
aI116
aI10
aI0
aI0
aI0
aI0
aI2
aI8
aI17
aI26
aI34
aI29
aa(lp101
S'10036'
p102
aI12
aI11
aI1
aI0
aI0
aI0
aI3
aI1
aI3
aI3
aI2
aI0
aa(lp103
S'10044'
p104
aI29
aI1
aI0
aI0
aI0
aI1
aI0
aI5
aI7
aI9
aI5
aI2
aa(lp105
S'10050'
p106
aI111
aI16
aI1
aI0
aI0
aI6
aI15
aI20
aI20
aI20
aI20
aI10
aa(lp107
S'10052'
p108
aI23
aI1
aI0
aI1
aI0
aI0
aI3
aI2
aI3
aI6
aI5
aI3
aa(lp109
S'10054'
p110
aI25
aI6
aI0
aI0
aI0
aI1
aI5
aI0
aI3
aI3
aI7
aI6
aa(lp111
S'10102'
p112
aI92
aI21
aI3
aI0
aI0
aI14
aI20
aI22
aI11
aI13
aI6
aI6
aa(lp113
S'10209'
p114
aI12
aI0
aI0
aI12
aI0
aI0
aI0
aI0
aI0
aI0
aI0
aI0
aa(lp115
S'10303'
p116
aI12
aI3
aI0
aI0
aI0
aI3
aI2
aI0
aI1
aI4
aI0
aI2
aa(lp117
S'10347'
p118
aI14
aI4
aI0
aI0
aI0
aI0
aI0
aI0
aI5
aI5
aI0
aI4
aa(lp119
S'10420'
p120
aI15
aI2
aI0
aI0
aI0
aI0
aI0
aI0
aI1
aI9
aI4
aI1
aa(lp121
S'10467'
p122
aI13
aI0
aI0
aI13
aI0
aI0
aI0
aI0
aI0
aI0
aI0
aI0
aa(lp123
S'11000'
p124
aI66
aI0
aI0
aI0
aI0
aI1
aI0
aI0
aI1
aI18
aI43
aI3
aa(lp125
S'11010'
p126
aI64
aI2
aI0
aI0
aI0
aI0
aI0
aI0
aI0
aI18
aI24
aI22
aa(lp127
S'11031'
p128
aI75
aI7
aI0
aI0
aI0
aI0
aI1
aI1
aI0
aI21
aI46
aI6
aa(lp129
S'11112'
p130
aI29
aI0
aI0
aI0
aI0
aI0
aI2
aI1
aI5
aI10
aI9
aI2
aa(lp131
S'11121'
p132
aI91
aI9
aI0
aI0
aI0
aI2
aI2
aI8
aI17
aI42
aI16
aI4
aa(lp133
S'11141'
p134
aI8
aI2
aI0
aI0
aI0
aI0
aI0
aI2
aI1
aI5
aI0
aI0
aa(lp135
S'11203'
p136
aI29
aI0
aI0
aI29
aI0
aI0
aI0
aI0
aI0
aI0
aI0
aI0
aa(lp137
S'11305'
p138
aI12
aI4
aI0
aI0
aI0
aI0
aI7
aI2
aI2
aI1
aI0
aI0
aa(lp139
S'11311'
p140
aI90
aI10
aI1
aI0
aI0
aI4
aI6
aI11
aI10
aI9
aI16
aI34
aa(lp141
S'11318'
p142
aI49
aI1
aI0
aI0
aI0
aI1
aI4
aI3
aI6
aI20
aI10
aI5
aa(lp143
S'11341'
p144
aI20
aI4
aI0
aI0
aI0
aI0
aI13
aI6
aI1
aI0
aI0
aI0
aa(lp145
S'11342'
p146
aI73
aI9
aI0
aI0
aI0
aI8
aI32
aI14
aI8
aI8
aI3
aI0
aa(lp147
S'11343'
p148
aI10
aI8
aI0
aI0
aI0
aI3
aI5
aI1
aI1
aI0
aI0
aI0
aa(lp149
S'11411'
p150
aI79
aI10
aI0
aI0
aI0
aI5
aI15
aI8
aI8
aI25
aI14
aI4
aa(lp151
S'11450'
p152
aI13
aI1
aI0
aI0
aI0
aI0
aI1
aI2
aI5
aI3
aI0
aI2
aa(lp153
S'11462'
p154
aI69
aI10
aI0
aI0
aI0
aI1
aI11
aI13
aI14
aI13
aI13
aI4
aa(lp155
S'11463'
p156
aI59
aI2
aI0
aI0
aI0
aI0
aI0
aI0
aI0
aI5
aI10
aI44
aa(lp157
S'11561'
p158
aI54
aI4
aI0
aI0
aI0
aI0
aI0
aI0
aI4
aI23
aI27
aI0
aa(lp159
S'11562'
p160
aI132
aI23
aI0
aI0
aI0
aI17
aI24
aI27
aI19
aI23
aI13
aI9
aa(lp161
S'11691'
p162
aI49
aI0
aI0
aI0
aI0
aI0
aI0
aI0
aI0
aI10
aI27
aI12
aa(lp163
S'11990'
p164
aI55
aI0
aI0
aI0
aI0
aI1
aI1
aI1
aI0
aI29
aI20
aI3
aa(lp165
S'11993'
p166
aI53
aI1
aI0
aI0
aI0
aI0
aI1
aI0
aI6
aI31
aI15
aI0
aa(lp167
S'11994'
p168
aI52
aI0
aI0
aI0
aI0
aI0
aI3
aI0
aI0
aI26
aI15
aI8
aa(lp169
S'11995'
p170
aI38
aI0
aI0
aI0
aI0
aI0
aI0
aI0
aI4
aI11
aI15
aI8
aa(lp171
S'11996'
p172
aI35
aI1
aI0
aI0
aI0
aI0
aI0
aI0
aI1
aI17
aI14
aI3
aa(lp173
S'11997'
p174
aI61
aI0
aI0
aI0
aI0
aI3
aI0
aI0
aI0
aI16
aI42
aI0
aa(lp175
S'12000'
p176
aI49
aI0
aI0
aI0
aI0
aI1
aI0
aI0
aI0
aI19
aI27
aI2
aa(lp177
S'12003'
p178
aI46
aI2
aI0
aI0
aI0
aI0
aI0
aI0
aI0
aI20
aI24
aI0
aa(lp179
S'12102'
p180
aI51
aI1
aI0
aI0
aI0
aI0
aI2
aI5
aI10
aI16
aI10
aI8
aa(lp181
S'12134'
p182
aI26
aI0
aI0
aI0
aI0
aI0
aI3
aI1
aI1
aI12
aI7
aI2
aa(lp183
S'12139'
p184
aI52
aI4
aI0
aI0
aI0
aI0
aI4
aI2
aI2
aI19
aI18
aI7
aa(lp185
S'12202'
p186
aI57
aI1
aI0
aI0
aI0
aI0
aI0
aI0
aI7
aI23
aI20
aI7
aa(lp187
S'12203'
p188
aI36
aI2
aI0
aI0
aI0
aI0
aI0
aI0
aI2
aI7
aI15
aI12
aa(lp189
S'12205'
p190
aI49
aI1
aI0
aI0
aI0
aI0
aI0
aI5
aI10
aI13
aI9
aI4
aa(lp191
S'12210'
p192
aI43
aI0
aI0
aI0
aI1
aI0
aI0
aI0
aI10
aI11
aI21
aI0
aa(lp193
S'12320'
p194
aI58
aI2
aI0
aI0
aI0
aI0
aI7
aI5
aI9
aI25
aI7
aI5
aa(lp195
S'12500'
p196
aI41
aI0
aI0
aI41
aI0
aI0
aI0
aI0
aI0
aI0
aI0
aI0
aa(lp197
S'23561'
p198
aI15
aI0
aI0
aI0
aI0
aI0
aI0
aI0
aI0
aI6
aI5
aI4
aa(lp199
S'23711'
p200
aI5
aI0
aI0
aI0
aI0
aI0
aI0
aI1
aI0
aI4
aI0
aI0
aa(lp201
S'23732'
p202
aI8
aI6
aI0
aI0
aI0
aI0
aI3
aI1
aI1
aI2
aI0
aI1
aa(lp203
S'24001'
p204
aI6
aI6
aI0
aI0
aI0
aI0
aI3
aI1
aI1
aI0
aI1
aI0
aa(lp205
S'24005'
p206
aI54
aI1
aI1
aI52
aI0
aI0
aI0
aI0
aI0
aI0
aI0
aI0
aa(lp207
S'24007'
p208
aI5
aI0
aI0
aI5
aI0
aI0
aI0
aI0
aI0
aI0
aI0
aI0
aa(lp209
S'25102'
p210
aI10
aI0
aI0
aI10
aI0
aI0
aI0
aI0
aI0
aI0
aI0
aI0
aa(lp211
S'25104'
p212
aI17
aI1
aI0
aI0
aI0
aI0
aI0
aI0
aI2
aI10
aI5
aI0
aa(lp213
S'26000'
p214
aI111
aI29
aI2
aI0
aI0
aI3
aI12
aI9
aI15
aI24
aI28
aI20
aa(lp215
S'26003'
p216
aI13
aI1
aI0
aI13
aI0
aI0
aI0
aI0
aI0
aI0
aI0
aI0
aa(lp217
S'26006'
p218
aI66
aI0
aI0
aI0
aI0
aI0
aI2
aI1
aI10
aI30
aI19
aI4
aa(lp219
S'26008'
p220
aI65
aI0
aI0
aI64
aI1
aI0
aI0
aI0
aI0
aI0
aI0
aI0
aa(lp221
S'26009'
p222
aI62
aI1
aI0
aI62
aI0
aI0
aI0
aI0
aI0
aI0
aI0
aI0
aa(lp223
S'26010'
p224
aI49
aI0
aI0
aI0
aI0
aI0
aI0
aI0
aI4
aI0
aI11
aI34
aa(lp225
S'26027'
p226
aI282
aI51
aI1
aI0
aI0
aI23
aI47
aI36
aI58
aI44
aI38
aI36
aa(lp227
S'26050'
p228
aI26
aI4
aI0
aI0
aI0
aI1
aI6
aI8
aI8
aI2
aI1
aI0
aa(lp229
S'26122'
p230
aI11
aI0
aI0
aI11
aI0
aI0
aI0
aI0
aI0
aI0
aI0
aI0
aa(lp231
S'26124'
p232
aI73
aI12
aI2
aI0
aI0
aI8
aI4
aI4
aI6
aI10
aI28
aI13
aa(lp233
S'26201'
p234
aI91
aI7
aI1
aI0
aI0
aI2
aI19
aI13
aI20
aI20
aI9
aI8
aa(lp235
S'26202'
p236
aI54
aI10
aI2
aI0
aI0
aI14
aI1
aI1
aI9
aI8
aI15
aI6
aa(lp237
S'26222'
p238
aI13
aI1
aI0
aI0
aI0
aI0
aI1
aI4
aI2
aI3
aI3
aI0
aa(lp239
S'26225'
p240
aI17
aI0
aI0
aI17
aI0
aI0
aI0
aI0
aI0
aI0
aI0
aI0
aa(lp241
S'26245'
p242
aI28
aI2
aI0
aI28
aI0
aI0
aI0
aI0
aI0
aI0
aI0
aI0
aa(lp243
S'26261'
p244
aI12
aI3
aI2
aI0
aI0
aI1
aI1
aI0
aI2
aI2
aI1
aI5
aa(lp245
S'26301'
p246
aI63
aI2
aI0
aI63
aI0
aI0
aI0
aI0
aI0
aI0
aI0
aI0
aa(lp247
S'26400'
p248
aI261
aI56
aI4
aI0
aI0
aI33
aI46
aI22
aI43
aI47
aI35
aI35
aa(lp249
S'26407'
p250
aI24
aI0
aI0
aI23
aI1
aI0
aI0
aI0
aI0
aI0
aI0
aI0
aa(lp251
S'26411'
p252
aI7
aI7
aI1
aI0
aI0
aI0
aI0
aI2
aI2
aI2
aI0
aI1
aa(lp253
S'26426'
p254
aI84
aI12
aI1
aI0
aI0
aI5
aI10
aI8
aI22
aI13
aI17
aI5
aa(lp255
S'26428'
p256
aI47
aI6
aI1
aI0
aI0
aI7
aI7
aI5
aI5
aI9
aI7
aI7
aa(lp257
S'26499'
p258
aI37
aI0
aI0
aI0
aI0
aI0
aI2
aI1
aI2
aI19
aI10
aI3
aa(lp259
S'27002'
p260
aI12
aI5
aI0
aI0
aI0
aI1
aI2
aI2
aI1
aI4
aI2
aI0
aa(lp261
S'27004'
p262
aI65
aI3
aI0
aI0
aI0
aI0
aI2
aI3
aI1
aI16
aI24
aI19
aa(lp263
S'27007'
p264
aI55
aI3
aI0
aI0
aI0
aI0
aI0
aI0
aI8
aI18
aI20
aI9
aa(lp265
S'27008'
p266
aI52
aI12
aI0
aI0
aI0
aI2
aI3
aI4
aI6
aI21
aI12
aI4
aa(lp267
S'27015'
p268
aI103
aI1
aI0
aI0
aI0
aI0
aI0
aI0
aI2
aI7
aI51
aI43
aa(lp269
S'27022'
p270
aI213
aI40
aI7
aI0
aI0
aI37
aI27
aI23
aI33
aI47
aI21
aI25
aa(lp271
S'27023'
p272
aI129
aI2
aI0
aI128
aI0
aI0
aI0
aI0
aI0
aI0
aI0
aI0
aa(lp273
S'27026'
p274
aI11
aI13
aI1
aI0
aI0
aI1
aI2
aI6
aI2
aI0
aI0
aI0
aa(lp275
S'27027'
p276
aI83
aI0
aI1
aI0
aI0
aI0
aI0
aI0
aI0
aI12
aI41
aI30
aa(lp277
S'27034'
p278
aI82
aI10
aI0
aI0
aI0
aI0
aI15
aI7
aI11
aI19
aI17
aI13
aa(lp279
S'27035'
p280
aI53
aI3
aI0
aI50
aI0
aI0
aI0
aI0
aI0
aI0
aI0
aI0
aa(lp281
S'27040'
p282
aI57
aI6
aI0
aI0
aI0
aI1
aI3
aI2
aI3
aI14
aI21
aI13
aa(lp283
S'27042'
p284
aI58
aI1
aI0
aI0
aI0
aI0
aI0
aI4
aI13
aI10
aI25
aI6
aa(lp285
S'27051'
p286
aI80
aI2
aI0
aI0
aI0
aI2
aI3
aI2
aI13
aI19
aI25
aI13
aa(lp287
S'27461'
p288
aI32
aI0
aI0
aI0
aI0
aI0
aI0
aI0
aI0
aI3
aI12
aI17
aa(lp289
S'27611'
p290
aI116
aI24
aI2
aI0
aI0
aI8
aI6
aI10
aI8
aI24
aI27
aI33
aa(lp291
S'27633'
p292
aI46
aI4
aI0
aI0
aI0
aI6
aI1
aI9
aI5
aI14
aI2
aI9
aa(lp293
S'28001'
p294
aI64
aI3
aI0
aI0
aI0
aI0
aI0
aI1
aI4
aI25
aI25
aI9
aa(lp295
S'28020'
p296
aI64
aI3
aI0
aI0
aI0
aI7
aI1
aI13
aI12
aI12
aI13
aI6
aa(lp297
S'28025'
p298
aI82
aI16
aI2
aI0
aI0
aI2
aI12
aI14
aI12
aI13
aI15
aI14
aa(lp299
S'28121'
p300
aI10
aI0
aI0
aI0
aI0
aI0
aI0
aI0
aI0
aI5
aI2
aI3
aa(lp301
S'28122'
p302
aI5
aI3
aI0
aI0
aI0
aI0
aI0
aI0
aI0
aI3
aI1
aI1
aa(lp303
S'28123'
p304
aI68
aI2
aI0
aI0
aI0
aI0
aI0
aI0
aI0
aI16
aI42
aI10
aa(lp305
S'28124'
p306
aI14
aI0
aI0
aI14
aI0
aI0
aI0
aI0
aI0
aI0
aI0
aI0
aa(lp307
S'28125'
p308
aI24
aI0
aI0
aI0
aI0
aI0
aI1
aI1
aI0
aI10
aI8
aI4
aa(lp309
S'28140'
p310
aI38
aI1
aI0
aI0
aI0
aI1
aI8
aI5
aI5
aI7
aI8
aI4
aa(lp311
S'28150'
p312
aI66
aI0
aI0
aI0
aI0
aI0
aI3
aI3
aI7
aI23
aI23
aI7
aa(lp313
S'28160'
p314
aI44
aI7
aI0
aI0
aI0
aI0
aI7
aI1
aI5
aI16
aI11
aI4
aa(lp315
S'28221'
p316
aI30
aI1
aI0
aI0
aI0
aI0
aI0
aI0
aI0
aI1
aI9
aI20
aa(lp317
S'30010'
p318
aI58
aI11
aI0
aI0
aI0
aI0
aI3
aI2
aI5
aI22
aI21
aI5
aa(lp319
S'30020'
p320
aI69
aI9
aI1
aI0
aI0
aI0
aI2
aI3
aI16
aI24
aI18
aI6
aa(lp321
S'30100'
p322
aI61
aI0
aI0
aI57
aI4
aI0
aI0
aI0
aI0
aI0
aI0
aI0
aa(lp323
S'30110'
p324
aI40
aI0
aI0
aI0
aI0
aI0
aI0
aI1
aI1
aI5
aI16
aI16
aa(lp325
S'30120'
p326
aI64
aI8
aI0
aI0
aI7
aI0
aI1
aI2
aI7
aI12
aI17
aI18
aa(lp327
S'30130'
p328
aI5
aI0
aI0
aI0
aI0
aI0
aI0
aI0
aI0
aI0
aI0
aI0
aa(lp329
S'30140'
p330
aI69
aI0
aI2
aI0
aI0
aI23
aI3
aI3
aI5
aI13
aI12
aI10
aa(lp331
S'30150'
p332
aI41
aI5
aI0
aI0
aI0
aI0
aI0
aI0
aI2
aI12
aI15
aI12
aa(lp333
S'30160'
p334
aI53
aI9
aI0
aI0
aI0
aI1
aI6
aI2
aI9
aI19
aI11
aI5
aa(lp335
S'31001'
p336
aI23
aI16
aI0
aI0
aI0
aI1
aI7
aI6
aI3
aI6
aI0
aI0
aa(lp337
S'31003'
p338
aI85
aI16
aI1
aI0
aI0
aI12
aI11
aI14
aI12
aI17
aI14
aI4
aa(lp339
S'31013'
p340
aI63
aI0
aI0
aI56
aI7
aI0
aI0
aI0
aI0
aI0
aI0
aI0
aa(lp341
S'31015'
p342
aI51
aI0
aI0
aI0
aI0
aI0
aI0
aI1
aI4
aI8
aI14
aI24
aa(lp343
S'31300'
p344
aI57
aI5
aI1
aI0
aI0
aI1
aI1
aI1
aI9
aI25
aI14
aI6
aa(lp345
S'31351'
p346
aI32
aI0
aI0
aI0
aI0
aI0
aI0
aI3
aI2
aI11
aI7
aI8
aa(lp347
S'31373'
p348
aI48
aI2
aI0
aI0
aI0
aI0
aI0
aI0
aI2
aI15
aI22
aI7
aa(lp349
S'31400'
p350
aI71
aI6
aI1
aI0
aI0
aI1
aI12
aI4
aI17
aI15
aI16
aI6
aa(lp351
S'31405'
p352
aI60
aI5
aI0
aI0
aI10
aI2
aI3
aI5
aI3
aI12
aI9
aI8
aa(lp353
S'31501'
p354
aI51
aI4
aI0
aI0
aI1
aI0
aI5
aI1
aI4
aI8
aI12
aI20
aa(lp355
S'31502'
p356
aI40
aI16
aI0
aI0
aI0
aI1
aI0
aI0
aI2
aI10
aI14
aI13
aa(lp357
S'31520'
p358
aI63
aI6
aI1
aI0
aI0
aI1
aI3
aI4
aI6
aI20
aI22
aI7
aa(lp359
S'31522'
p360
aI21
aI1
aI0
aI0
aI0
aI0
aI0
aI0
aI1
aI7
aI9
aI4
aa(lp361
S'31540'
p362
aI59
aI0
aI0
aI0
aI0
aI0
aI2
aI4
aI9
aI13
aI20
aI11
aa(lp363
S'31605'
p364
aI132
aI12
aI1
aI0
aI0
aI10
aI16
aI8
aI24
aI38
aI21
aI11
aa(lp365
S'31606'
p366
aI54
aI3
aI0
aI0
aI0
aI0
aI0
aI4
aI9
aI15
aI19
aI7
aa(lp367
S'31631'
p368
aI10
aI2
aI0
aI0
aI0
aI2
aI5
aI0
aI3
aI0
aI0
aI0
aa(lp369
S'31700'
p370
aI35
aI1
aI0
aI0
aI0
aI0
aI0
aI0
aI12
aI12
aI8
aI3
aa(lp371
S'33236'
p372
aI10
aI0
aI0
aI0
aI0
aI0
aI0
aI0
aI1
aI7
aI2
aI0
aa(lp373
S'33253'
p374
aI32
aI3
aI1
aI0
aI0
aI0
aI2
aI1
aI3
aI13
aI9
aI4
aa(lp375
S'33255'
p376
aI5
aI3
aI0
aI0
aI0
aI0
aI0
aI3
aI0
aI1
aI1
aI0
aa(lp377
S'33257'
p378
aI10
aI5
aI0
aI0
aI0
aI0
aI2
aI1
aI1
aI3
aI1
aI2
aa(lp379
S'33323'
p380
aI21
aI1
aI0
aI0
aI0
aI0
aI1
aI1
aI7
aI5
aI6
aI1
aa(lp381
S'33470'
p382
aI9
aI1
aI0
aI9
aI0
aI0
aI0
aI0
aI0
aI0
aI0
aI0
aa(lp383
S'33471'
p384
aI15
aI0
aI0
aI15
aI0
aI0
aI0
aI0
aI0
aI0
aI0
aI0
aa(lp385
S'33472'
p386
aI56
aI2
aI0
aI56
aI0
aI0
aI0
aI0
aI0
aI0
aI0
aI0
aa(lp387
S'33480'
p388
aI33
aI0
aI0
aI33
aI0
aI0
aI0
aI0
aI0
aI0
aI0
aI0
aa(lp389
S'33481'
p390
aI14
aI1
aI0
aI0
aI0
aI0
aI0
aI1
aI0
aI6
aI5
aI2
aa(lp391
S'33482'
p392
aI7
aI0
aI0
aI0
aI0
aI0
aI0
aI0
aI0
aI3
aI3
aI1
aa(lp393
S'34020'
p394
aI81
aI24
aI3
aI0
aI0
aI7
aI9
aI17
aI16
aI9
aI14
aI9
aa(lp395
S'34029'
p396
aI8
aI1
aI0
aI0
aI0
aI0
aI0
aI0
aI1
aI0
aI7
aI0
aa(lp397
S'34031'
p398
aI17
aI4
aI0
aI0
aI0
aI0
aI4
aI2
aI1
aI4
aI3
aI3
aa(lp399
S'34120'
p400
aI12
aI5
aI0
aI0
aI0
aI0
aI0
aI1
aI3
aI6
aI2
aI0
aa(lp401
S'34126'
p402
aI5
aI0
aI0
aI5
aI0
aI0
aI0
aI0
aI0
aI0
aI0
aI0
aa(lp403
S'34127'
p404
aI11
aI4
aI0
aI0
aI0
aI0
aI0
aI0
aI1
aI4
aI3
aI3
aa(lp405
S'34129'
p406
aI11
aI1
aI0
aI11
aI0
aI0
aI0
aI0
aI0
aI0
aI0
aI0
aa(lp407
S'34210'
p408
aI34
aI16
aI0
aI0
aI0
aI10
aI4
aI2
aI8
aI8
aI2
aI0
aa(lp409
S'34220'
p410
aI23
aI0
aI0
aI0
aI0
aI0
aI0
aI4
aI1
aI7
aI7
aI4
aa(lp411
S'34229'
p412
aI36
aI0
aI0
aI0
aI0
aI2
aI0
aI4
aI13
aI5
aI9
aI0
aa(lp413
S'34302'
p414
aI37
aI0
aI0
aI33
aI4
aI0
aI0
aI0
aI0
aI0
aI0
aI0
aa(lp415
S'34311'
p416
aI5
aI3
aI0
aI0
aI0
aI0
aI0
aI0
aI0
aI2
aI3
aI0
aa(lp417
S'34315'
p418
aI12
aI0
aI0
aI12
aI0
aI0
aI0
aI0
aI0
aI0
aI0
aI0
aa(lp419
S'34318'
p420
aI11
aI0
aI0
aI11
aI0
aI0
aI0
aI0
aI0
aI0
aI0
aI0
aa(lp421
S'34319'
p422
aI11
aI0
aI0
aI11
aI0
aI0
aI0
aI0
aI0
aI0
aI0
aI0
aa(lp423
S'34330'
p424
aI41
aI5
aI0
aI0
aI0
aI0
aI1
aI3
aI6
aI10
aI11
aI10
aa(lp425
S'41000'
p426
aI71
aI0
aI0
aI1
aI0
aI0
aI2
aI0
aI4
aI7
aI38
aI19
aa(lp427
S'41010'
p428
aI61
aI1
aI0
aI0
aI0
aI0
aI0
aI0
aI0
aI15
aI34
aI12
aa(lp429
S'41012'
p430
aI63
aI1
aI1
aI62
aI1
aI0
aI0
aI0
aI0
aI0
aI0
aI0
aa(lp431
S'41015'
p432
aI5
aI1
aI0
aI0
aI0
aI0
aI1
aI1
aI0
aI2
aI1
aI0
aa(lp433
S'41020'
p434
aI57
aI1
aI0
aI0
aI0
aI0
aI0
aI0
aI0
aI13
aI29
aI15
aa(lp435
S'41030'
p436
aI59
aI2
aI0
aI0
aI0
aI0
aI0
aI0
aI0
aI6
aI29
aI24
aa(lp437
S'41031'
p438
aI61
aI2
aI0
aI0
aI0
aI0
aI0
aI4
aI16
aI19
aI16
aI6
aa(lp439
S'41035'
p440
aI53
aI2
aI0
aI0
aI0
aI0
aI0
aI1
aI3
aI10
aI21
aI18
aa(lp441
S'41045'
p442
aI43
aI7
aI0
aI0
aI0
aI0
aI4
aI4
aI11
aI9
aI8
aI7
aa(lp443
S'41051'
p444
aI35
aI0
aI0
aI0
aI0
aI0
aI0
aI0
aI2
aI7
aI21
aI5
aa(lp445
S'41102'
p446
aI104
aI3
aI0
aI0
aI0
aI1
aI5
aI14
aI25
aI34
aI18
aI7
aa(lp447
S'41112'
p448
aI30
aI0
aI0
aI30
aI0
aI0
aI0
aI0
aI0
aI0
aI0
aI0
aa(lp449
S'41202'
p450
aI18
aI0
aI0
aI0
aI0
aI2
aI1
aI3
aI6
aI4
aI1
aI1
aa(lp451
S'41203'
p452
aI63
aI8
aI0
aI0
aI0
aI1
aI1
aI1
aI5
aI13
aI21
aI21
aa(lp453
S'41263'
p454
aI20
aI0
aI0
aI0
aI0
aI0
aI1
aI0
aI0
aI8
aI9
aI2
aa(lp455
S'41271'
p456
aI13
aI1
aI0
aI0
aI0
aI0
aI0
aI0
aI3
aI4
aI4
aI2
aa(lp457
S'41280'
p458
aI11
aI0
aI0
aI0
aI0
aI0
aI0
aI0
aI0
aI1
aI7
aI3
aa(lp459
S'41312'
p460
aI62
aI10
aI0
aI0
aI0
aI0
aI7
aI5
aI13
aI17
aI14
aI6
aa(lp461
S'41342'
p462
aI22
aI1
aI0
aI22
aI0
aI0
aI0
aI0
aI0
aI0
aI0
aI0
aa(lp463
S'41344'
p464
aI22
aI1
aI0
aI0
aI0
aI0
aI0
aI1
aI5
aI7
aI5
aI4
aa(lp465
S'41401'
p466
aI46
aI5
aI0
aI0
aI0
aI0
aI0
aI5
aI11
aI5
aI12
aI13
aa(lp467
S'41402'
p468
aI10
aI1
aI0
aI0
aI0
aI0
aI1
aI0
aI0
aI3
aI5
aI1
aa(lp469
S'41409'
p470
aI12
aI1
aI0
aI0
aI0
aI0
aI0
aI1
aI2
aI3
aI5
aI1
aa(lp471
S'41422'
p472
aI18
aI6
aI0
aI0
aI0
aI1
aI1
aI2
aI2
aI3
aI4
aI5
aa(lp473
S'41501'
p474
aI99
aI20
aI0
aI0
aI0
aI9
aI20
aI18
aI19
aI17
aI11
aI5
aa(lp475
S'41502'
p476
aI9
aI7
aI0
aI0
aI0
aI0
aI5
aI3
aI1
aI0
aI0
aI0
aa(lp477
S'41511'
p478
aI74
aI4
aI0
aI0
aI0
aI1
aI3
aI6
aI7
aI17
aI27
aI13
aa(lp479
S'41560'
p480
aI48
aI2
aI0
aI0
aI0
aI5
aI1
aI6
aI11
aI17
aI7
aI1
aa(lp481
S'41603'
p482
aI42
aI1
aI0
aI0
aI0
aI0
aI0
aI0
aI0
aI12
aI22
aI8
aa(lp483
S'41612'
p484
aI70
aI1
aI0
aI0
aI0
aI0
aI0
aI0
aI2
aI12
aI42
aI14
aa(lp485
S'41616'
p486
aI42
aI2
aI0
aI0
aI0
aI0
aI0
aI0
aI8
aI20
aI10
aI4
aa(lp487
S'41617'
p488
aI40
aI7
aI0
aI0
aI0
aI0
aI0
aI0
aI5
aI10
aI16
aI9
aa(lp489
S'41618'
p490
aI59
aI2
aI0
aI0
aI0
aI0
aI0
aI0
aI1
aI20
aI28
aI10
aa(lp491
S'41650'
p492
aI23
aI3
aI0
aI0
aI0
aI0
aI1
aI5
aI3
aI7
aI6
aI1
aa(lp493
S'41651'
p494
aI14
aI0
aI0
aI14
aI0
aI0
aI0
aI0
aI0
aI0
aI0
aI0
aa(lp495
S'41659'
p496
aI54
aI3
aI0
aI0
aI0
aI0
aI1
aI1
aI9
aI23
aI14
aI6
aa(lp497
S'41704'
p498
aI18
aI8
aI0
aI0
aI0
aI0
aI0
aI5
aI4
aI6
aI2
aI1
aa(lp499
S'41706'
p500
aI15
aI0
aI0
aI15
aI0
aI0
aI0
aI0
aI0
aI0
aI0
aI0
aa(lp501
S'41713'
p502
aI68
aI12
aI0
aI0
aI0
aI1
aI5
aI6
aI9
aI31
aI12
aI4
aa(lp503
S'41801'
p504
aI60
aI6
aI0
aI0
aI0
aI0
aI0
aI0
aI0
aI8
aI28
aI24
aa(lp505
S'41812'
p506
aI69
aI2
aI0
aI0
aI0
aI0
aI0
aI2
aI14
aI17
aI28
aI8
aa(lp507
S'41814'
p508
aI67
aI3
aI0
aI0
aI0
aI1
aI2
aI2
aI9
aI24
aI21
aI8
aa(lp509
S'41842'
p510
aI7
aI2
aI0
aI0
aI0
aI0
aI0
aI0
aI0
aI1
aI5
aI1
aa(lp511
S'42005'
p512
aI5
aI2
aI0
aI0
aI0
aI1
aI0
aI1
aI1
aI2
aI0
aI0
aa(lp513
S'42011'
p514
aI61
aI1
aI1
aI0
aI0
aI0
aI0
aI0
aI2
aI28
aI30
aI1
aa(lp515
S'42021'
p516
aI56
aI3
aI0
aI0
aI0
aI0
aI0
aI0
aI6
aI32
aI14
aI4
aa(lp517
S'42042'
p518
aI62
aI0
aI0
aI0
aI0
aI0
aI0
aI1
aI3
aI20
aI30
aI8
aa(lp519
S'42062'
p520
aI56
aI4
aI0
aI0
aI0
aI0
aI0
aI2
aI4
aI20
aI24
aI6
aa(lp521
S'42101'
p522
aI93
aI34
aI1
aI0
aI0
aI0
aI11
aI5
aI11
aI33
aI23
aI10
aa(lp523
S'42107'
p524
aI27
aI7
aI0
aI0
aI0
aI0
aI0
aI2
aI2
aI6
aI7
aI10
aa(lp525
S'42270'
p526
aI54
aI1
aI0
aI0
aI0
aI0
aI0
aI6
aI11
aI19
aI9
aI9
aa(lp527
S'42340'
p528
aI32
aI0
aI0
aI0
aI0
aI0
aI0
aI0
aI0
aI13
aI12
aI4
aa(lp529
S'42406'
p530
aI39
aI2
aI1
aI0
aI0
aI0
aI0
aI0
aI1
aI7
aI23
aI8
aa(lp531
S'42415'
p532
aI86
aI33
aI0
aI0
aI0
aI1
aI22
aI26
aI10
aI13
aI8
aI6
aa(lp533
S'42421'
p534
aI73
aI5
aI0
aI0
aI0
aI0
aI0
aI1
aI7
aI41
aI20
aI4
aa(lp535
S'42429'
p536
aI63
aI8
aI0
aI0
aI0
aI0
aI0
aI0
aI1
aI17
aI35
aI10
aa(lp537
S'42430'
p538
aI248
aI12
aI0
aI0
aI0
aI0
aI0
aI0
aI6
aI107
aI114
aI21
aa(lp539
S'42580'
p540
aI22
aI2
aI0
aI0
aI0
aI0
aI0
aI0
aI0
aI6
aI9
aI7
aa(lp541
S'42582'
p542
aI87
aI9
aI0
aI0
aI0
aI0
aI2
aI3
aI13
aI22
aI26
aI21
aa(lp543
S'42583'
p544
aI26
aI0
aI0
aI0
aI0
aI0
aI0
aI1
aI8
aI4
aI8
aI5
aa(lp545
S'42584'
p546
aI24
aI0
aI0
aI0
aI0
aI0
aI0
aI0
aI0
aI6
aI12
aI6
aa(lp547
S'42610'
p548
aI354
aI35
aI0
aI0
aI0
aI6
aI10
aI29
aI55
aI121
aI77
aI47
aa(lp549
S'46000'
p550
aI17
aI1
aI0
aI0
aI0
aI0
aI0
aI1
aI0
aI10
aI6
aI0
aa(lp551
S'46440'
p552
aI9
aI0
aI0
aI9
aI0
aI0
aI0
aI0
aI0
aI0
aI0
aI0
aa(lp553
S'KU002'
p554
aI12
aI0
aI0
aI0
aI0
aI3
aI4
aI2
aI1
aI2
aI0
aI0
aa(lp555
S'KU003'
p556
aI48
aI24
aI1
aI0
aI0
aI4
aI8
aI13
aI10
aI8
aI4
aI1
aa(lp557
S'KU004'
p558
aI6
aI5
aI0
aI0
aI0
aI1
aI1
aI0
aI2
aI2
aI0
aI0
aa(lp559
S'KU005'
p560
aI49
aI7
aI0
aI0
aI0
aI2
aI1
aI3
aI4
aI9
aI18
aI12
aa(lp561
S'KU006'
p562
aI43
aI0
aI0
aI43
aI0
aI0
aI0
aI0
aI0
aI0
aI0
aI0
aa(lp563
S'KU009'
p564
aI5
aI0
aI0
aI3
aI2
aI0
aI0
aI0
aI0
aI0
aI0
aI0
aa(lp565
S'KU010'
p566
aI5
aI0
aI0
aI0
aI0
aI1
aI0
aI1
aI1
aI1
aI1
aI0
aa(lp567
S'KU011'
p568
aI18
aI1
aI0
aI0
aI0
aI1
aI5
aI4
aI6
aI2
aI0
aI0
aa(lp569
S'KU012'
p570
aI60
aI4
aI0
aI60
aI0
aI0
aI0
aI0
aI0
aI0
aI0
aI0
aa.