(lp0
(lp1
S'26027'
p2
aI9
aI19
aI33
aI18
aI10
aI7
aI22
aI32
aI18
aI10
aI14
aI18
aI34
aI17
aI5
aI2
aI8
aI37
aI17
aI24
aI4
aI20
aI41
aI13
aI9
aI12
aI26
aI45
aI5
aI0
aI0
aI9
aI72
aI6
aI1
aI5
aI26
aI29
aI15
aI13
aI23
aI32
aI32
aa(lp3
S'01005'
p4
aI326
aI167
aI61
aI26
aI11
aI265
aI201
aI77
aI37
aI8
aI169
aI253
aI110
aI48
aI8
aI101
aI181
aI201
aI84
aI19
aI159
aI238
aI132
aI50
aI7
aI6
aI97
aI272
aI154
aI57
aI1
aI17
aI441
aI111
aI16
aI184
aI243
aI83
aI67
aI11
aI370
aI100
aI116
aa(lp5
S'01006'
p6
aI16
aI4
aI1
aI2
aI0
aI11
aI7
aI3
aI2
aI0
aI10
aI5
aI4
aI3
aI0
aI3
aI11
aI5
aI1
aI3
aI11
aI9
aI1
aI1
aI0
aI1
aI3
aI10
aI5
aI4
aI0
aI1
aI20
aI1
aI0
aI16
aI4
aI2
aI1
aI0
aI15
aI3
aI5
aa(lp7
S'01017'
p8
aI59
aI58
aI12
aI4
aI4
aI43
aI62
aI23
aI6
aI2
aI41
aI68
aI15
aI10
aI3
aI24
aI53
aI45
aI14
aI1
aI56
aI43
aI25
aI11
aI2
aI9
aI39
aI78
aI9
aI1
aI2
aI3
aI127
aI4
aI0
aI59
aI58
aI9
aI6
aI4
aI58
aI38
aI40
aa(lp9
S'01025'
p10
aI21
aI6
aI0
aI1
aI0
aI18
aI6
aI4
aI0
aI0
aI20
aI6
aI2
aI0
aI0
aI11
aI10
aI1
aI5
aI1
aI15
aI8
aI4
aI1
aI0
aI1
aI2
aI9
aI11
aI5
aI1
aI0
aI25
aI2
aI0
aI16
aI9
aI1
aI1
aI0
aI24
aI3
aI1
aa(lp11
S'01035'
p12
aI52
aI75
aI17
aI7
aI3
aI64
aI50
aI26
aI8
aI6
aI62
aI57
aI22
aI8
aI5
aI32
aI52
aI42
aI19
aI9
aI38
aI62
aI38
aI12
aI4
aI2
aI35
aI93
aI22
aI2
aI0
aI3
aI135
aI11
aI1
aI48
aI70
aI17
aI15
aI3
aI25
aI78
aI51
aa(lp13
S'01037'
p14
aI13
aI5
aI3
aI1
aI1
aI7
aI7
aI9
aI0
aI0
aI6
aI11
aI5
aI1
aI0
aI5
aI6
aI6
aI3
aI3
aI7
aI5
aI5
aI5
aI0
aI1
aI1
aI9
aI7
aI5
aI0
aI1
aI18
aI3
aI1
aI9
aI8
aI4
aI2
aI0
aI5
aI13
aI5
aa(lp15
S'01237'
p16
aI10
aI13
aI7
aI3
aI0
aI9
aI12
aI8
aI4
aI0
aI9
aI11
aI7
aI4
aI1
aI1
aI6
aI11
aI10
aI5
aI8
aI6
aI11
aI6
aI2
aI0
aI4
aI19
aI6
aI4
aI0
aI0
aI30
aI3
aI0
aI8
aI11
aI11
aI3
aI0
aI4
aI20
aI9
aa(lp17
S'01666'
p18
aI9
aI6
aI2
aI0
aI0
aI11
aI5
aI1
aI0
aI0
aI4
aI2
aI5
aI3
aI3
aI5
aI5
aI2
aI3
aI2
aI4
aI1
aI9
aI1
aI2
aI0
aI1
aI9
aI7
aI0
aI0
aI0
aI17
aI0
aI0
aI5
aI6
aI5
aI0
aI1
aI4
aI9
aI4
aa(lp19
S'02101'
p20
aI24
aI22
aI18
aI10
aI8
aI20
aI25
aI20
aI10
aI7
aI13
aI27
aI20
aI16
aI6
aI13
aI17
aI35
aI10
aI7
aI12
aI25
aI24
aI16
aI5
aI15
aI19
aI32
aI13
aI3
aI3
aI5
aI66
aI6
aI1
aI16
aI28
aI24
aI9
aI5
aI18
aI26
aI38
aa(lp21
S'02102'
p22
aI18
aI14
aI6
aI4
aI0
aI18
aI16
aI5
aI2
aI1
aI16
aI16
aI8
aI2
aI0
aI9
aI14
aI12
aI6
aI1
aI11
aI23
aI6
aI2
aI0
aI1
aI10
aI23
aI7
aI1
aI0
aI1
aI34
aI7
aI0
aI20
aI15
aI6
aI1
aI0
aI21
aI5
aI16
aa(lp23
S'02105'
p24
aI34
aI16
aI4
aI2
aI2
aI33
aI18
aI2
aI3
aI2
aI27
aI16
aI7
aI7
aI1
aI21
aI19
aI9
aI4
aI4
aI36
aI13
aI6
aI1
aI2
aI2
aI16
aI34
aI4
aI1
aI1
aI4
aI51
aI2
aI0
aI41
aI12
aI2
aI1
aI2
aI35
aI10
aI13
aa(lp25
S'02121'
p26
aI2
aI10
aI6
aI3
aI2
aI6
aI7
aI3
aI4
aI3
aI2
aI6
aI8
aI4
aI3
aI1
aI3
aI10
aI5
aI4
aI3
aI8
aI7
aI2
aI3
aI0
aI7
aI15
aI1
aI0
aI0
aI0
aI21
aI1
aI0
aI5
aI5
aI5
aI5
aI3
aI2
aI11
aI10
aa(lp27
S'02122'
p28
aI5
aI5
aI2
aI1
aI0
aI5
aI3
aI1
aI3
aI1
aI2
aI2
aI8
aI0
aI1
aI2
aI5
aI3
aI2
aI1
aI4
aI3
aI4
aI2
aI0
aI0
aI1
aI8
aI4
aI0
aI0
aI0
aI13
aI0
aI0
aI5
aI5
aI1
aI1
aI1
aI5
aI5
aI3
aa(lp29
S'02128'
p30
aI8
aI10
aI2
aI1
aI0
aI13
aI5
aI2
aI1
aI0
aI4
aI7
aI6
aI3
aI1
aI3
aI6
aI9
aI3
aI0
aI8
aI6
aI4
aI3
aI0
aI0
aI3
aI13
aI5
aI0
aI0
aI0
aI18
aI2
aI1
aI10
aI5
aI5
aI1
aI0
aI4
aI12
aI5
aa(lp31
S'02131'
p32
aI14
aI10
aI6
aI4
aI1
aI11
aI9
aI11
aI3
aI1
aI4
aI6
aI11
aI6
aI8
aI6
aI10
aI7
aI7
aI5
aI6
aI11
aI7
aI7
aI4
aI0
aI3
aI16
aI11
aI5
aI0
aI3
aI30
aI2
aI0
aI5
aI16
aI3
aI5
aI6
aI6
aI18
aI10
aa(lp33
S'02138'
p34
aI26
aI21
aI8
aI2
aI1
aI19
aI27
aI6
aI4
aI1
aI11
aI21
aI18
aI6
aI1
aI3
aI17
aI18
aI16
aI3
aI12
aI19
aI18
aI5
aI3
aI0
aI7
aI42
aI7
aI0
aI0
aI2
aI45
aI7
aI2
aI12
aI28
aI11
aI4
aI2
aI45
aI1
aI11
aa(lp35
S'02139'
p36
aI4
aI10
aI4
aI2
aI0
aI5
aI8
aI7
aI0
aI0
aI4
aI7
aI6
aI3
aI0
aI4
aI1
aI10
aI2
aI3
aI9
aI5
aI6
aI0
aI0
aI0
aI4
aI13
aI3
aI0
aI0
aI1
aI18
aI0
aI1
aI4
aI10
aI4
aI2
aI0
aI8
aI2
aI10
aa(lp37
S'02141'
p38
aI7
aI10
aI6
aI4
aI0
aI6
aI10
aI7
aI4
aI0
aI6
aI3
aI11
aI5
aI2
aI1
aI3
aI12
aI3
aI8
aI7
aI7
aI9
aI2
aI2
aI3
aI2
aI15
aI7
aI0
aI0
aI0
aI24
aI2
aI0
aI4
aI7
aI10
aI3
aI3
aI1
aI18
aI8
aa(lp39
S'02148'
p40
aI0
aI6
aI3
aI3
aI0
aI5
aI6
aI1
aI0
aI0
aI0
aI1
aI6
aI2
aI3
aI0
aI2
aI2
aI6
aI2
aI0
aI2
aI6
aI3
aI1
aI0
aI5
aI7
aI0
aI0
aI0
aI1
aI10
aI1
aI0
aI2
aI6
aI4
aI0
aI0
aI12
aI0
aI0
aa(lp41
S'02155'
p42
aI8
aI14
aI5
aI4
aI1
aI6
aI10
aI11
aI3
aI2
aI8
aI10
aI6
aI7
aI1
aI2
aI12
aI11
aI5
aI2
aI3
aI16
aI9
aI3
aI1
aI2
aI4
aI19
aI7
aI0
aI0
aI3
aI26
aI2
aI1
aI3
aI17
aI7
aI4
aI1
aI20
aI4
aI8
aa(lp43
S'02156'
p44
aI4
aI8
aI3
aI3
aI0
aI4
aI6
aI4
aI2
aI2
aI2
aI7
aI2
aI5
aI2
aI5
aI5
aI4
aI3
aI1
aI5
aI5
aI5
aI2
aI1
aI0
aI4
aI14
aI0
aI0
aI0
aI1
aI17
aI0
aI0
aI2
aI9
aI3
aI2
aI2
aI9
aI2
aI7
aa(lp45
S'02157'
p46
aI14
aI12
aI0
aI3
aI0
aI9
aI11
aI5
aI4
aI0
aI9
aI9
aI4
aI5
aI2
aI9
aI10
aI7
aI3
aI0
aI11
aI8
aI7
aI3
aI0
aI1
aI4
aI17
aI6
aI1
aI0
aI1
aI27
aI1
aI0
aI9
aI11
aI4
aI4
aI1
aI16
aI3
aI10
aa(lp47
S'02158'
p48
aI8
aI14
aI0
aI2
aI0
aI8
aI13
aI1
aI2
aI0
aI5
aI12
aI4
aI3
aI0
aI6
aI11
aI3
aI2
aI2
aI8
aI12
aI2
aI1
aI1
aI0
aI3
aI10
aI9
aI2
aI0
aI1
aI22
aI0
aI1
aI5
aI16
aI1
aI2
aI0
aI8
aI7
aI9
aa(lp49
S'02159'
p50
aI1
aI8
aI1
aI4
aI4
aI4
aI2
aI3
aI2
aI7
aI1
aI7
aI5
aI3
aI2
aI2
aI3
aI4
aI2
aI7
aI1
aI4
aI6
aI3
aI4
aI1
aI3
aI5
aI4
aI5
aI1
aI2
aI10
aI2
aI3
aI2
aI4
aI4
aI3
aI5
aI3
aI9
aI6
aa(lp51
S'02161'
p52
aI2
aI8
aI10
aI11
aI5
aI4
aI6
aI10
aI9
aI7
aI1
aI7
aI9
aI9
aI10
aI1
aI4
aI13
aI9
aI9
aI2
aI8
aI13
aI7
aI6
aI2
aI14
aI17
aI2
aI1
aI2
aI3
aI29
aI1
aI1
aI1
aI7
aI10
aI11
aI7
aI20
aI6
aI10
aa(lp53
S'02170'
p54
aI17
aI13
aI5
aI0
aI0
aI14
aI12
aI8
aI1
aI0
aI15
aI16
aI4
aI0
aI0
aI8
aI10
aI10
aI2
aI5
aI16
aI14
aI4
aI1
aI0
aI0
aI6
aI22
aI7
aI0
aI0
aI1
aI33
aI1
aI0
aI18
aI13
aI3
aI1
aI0
aI5
aI20
aI10
aa(lp55
S'02190'
p56
aI2
aI0
aI4
aI3
aI2
aI2
aI1
aI3
aI3
aI2
aI2
aI2
aI2
aI3
aI2
aI1
aI2
aI3
aI1
aI4
aI2
aI2
aI4
aI1
aI2
aI1
aI1
aI7
aI2
aI0
aI0
aI0
aI7
aI3
aI1
aI2
aI1
aI3
aI5
aI0
aI4
aI5
aI2
aa(lp57
S'02350'
p58
aI7
aI7
aI5
aI7
aI2
aI9
aI7
aI6
aI4
aI2
aI2
aI6
aI6
aI4
aI9
aI4
aI4
aI8
aI4
aI7
aI1
aI7
aI8
aI5
aI6
aI1
aI2
aI16
aI6
aI2
aI0
aI3
aI19
aI3
aI2
aI5
aI9
aI0
aI8
aI5
aI10
aI4
aI13
aa(lp59
S'02402'
p60
aI42
aI46
aI15
aI9
aI3
aI43
aI36
aI22
aI12
aI2
aI37
aI36
aI19
aI16
aI4
aI22
aI40
aI35
aI15
aI2
aI42
aI36
aI21
aI13
aI2
aI6
aI26
aI63
aI16
aI3
aI1
aI2
aI104
aI6
aI1
aI38
aI43
aI18
aI12
aI1
aI28
aI45
aI42
aa(lp61
S'02403'
p62
aI29
aI56
aI17
aI12
aI3
aI29
aI43
aI23
aI16
aI6
aI32
aI50
aI22
aI10
aI3
aI10
aI32
aI39
aI26
aI10
aI15
aI47
aI28
aI21
aI6
aI1
aI15
aI51
aI36
aI14
aI1
aI2
aI101
aI10
aI3
aI25
aI48
aI16
aI24
aI4
aI71
aI37
aI9
aa(lp63
S'02405'
p64
aI13
aI16
aI7
aI4
aI1
aI18
aI12
aI9
aI2
aI0
aI7
aI11
aI11
aI8
aI4
aI5
aI10
aI16
aI7
aI3
aI10
aI10
aI17
aI4
aI0
aI0
aI8
aI9
aI17
aI7
aI0
aI5
aI24
aI9
aI3
aI9
aI14
aI10
aI5
aI3
aI11
aI19
aI10
aa(lp65
S'02413'
p66
aI5
aI1
aI0
aI1
aI0
aI4
aI2
aI1
aI0
aI0
aI4
aI2
aI1
aI0
aI0
aI4
aI1
aI0
aI2
aI0
aI4
aI1
aI2
aI0
aI0
aI0
aI1
aI4
aI0
aI2
aI1
aI1
aI5
aI0
aI0
aI4
aI1
aI1
aI1
aI0
aI6
aI1
aI0
aa(lp67
S'02450'
p68
aI42
aI18
aI14
aI12
aI3
aI40
aI19
aI17
aI11
aI2
aI30
aI28
aI13
aI12
aI6
aI21
aI20
aI22
aI18
aI8
aI32
aI25
aI17
aI9
aI6
aI1
aI6
aI37
aI34
aI11
aI3
aI5
aI67
aI6
aI8
aI37
aI23
aI9
aI11
aI8
aI42
aI26
aI21
aa(lp69
S'02502'
p70
aI2
aI9
aI7
aI1
aI1
aI5
aI6
aI6
aI3
aI0
aI3
aI8
aI2
aI6
aI1
aI1
aI7
aI6
aI5
aI1
aI2
aI10
aI5
aI3
aI0
aI4
aI7
aI8
aI1
aI0
aI0
aI1
aI19
aI0
aI0
aI3
aI7
aI8
aI1
aI1
aI12
aI3
aI5
aa(lp71
S'02511'
p72
aI18
aI18
aI2
aI3
aI1
aI19
aI15
aI4
aI2
aI2
aI22
aI14
aI2
aI2
aI2
aI11
aI10
aI17
aI3
aI1
aI22
aI13
aI3
aI3
aI1
aI0
aI4
aI32
aI2
aI3
aI0
aI1
aI37
aI3
aI0
aI23
aI14
aI1
aI3
aI1
aI23
aI12
aI7
aa(lp73
S'02512'
p74
aI9
aI9
aI3
aI1
aI0
aI16
aI4
aI1
aI0
aI1
aI8
aI12
aI1
aI0
aI1
aI5
aI5
aI8
aI3
aI0
aI8
aI8
aI3
aI1
aI1
aI3
aI4
aI14
aI1
aI0
aI1
aI3
aI17
aI0
aI1
aI10
aI8
aI2
aI1
aI1
aI18
aI3
aI1
aa(lp75
S'02525'
p76
aI12
aI10
aI6
aI1
aI2
aI8
aI15
aI6
aI1
aI1
aI4
aI9
aI9
aI5
aI4
aI1
aI10
aI11
aI9
aI0
aI3
aI7
aI12
aI5
aI4
aI2
aI2
aI22
aI4
aI1
aI0
aI1
aI24
aI5
aI1
aI11
aI8
aI5
aI6
aI0
aI26
aI1
aI3
aa(lp77
S'02526'
p78
aI3
aI8
aI6
aI6
aI2
aI7
aI8
aI8
aI2
aI0
aI2
aI7
aI12
aI3
aI1
aI1
aI6
aI4
aI9
aI5
aI5
aI7
aI8
aI3
aI2
aI0
aI2
aI20
aI3
aI0
aI1
aI1
aI18
aI3
aI2
aI2
aI9
aI10
aI3
aI1
aI11
aI8
aI6
aa(lp79
S'02601'
p80
aI12
aI9
aI12
aI5
aI4
aI10
aI11
aI12
aI7
aI2
aI4
aI10
aI8
aI13
aI7
aI3
aI12
aI12
aI9
aI6
aI7
aI13
aI12
aI6
aI4
aI3
aI6
aI22
aI8
aI3
aI1
aI6
aI24
aI6
aI5
aI8
aI11
aI9
aI9
aI5
aI29
aI5
aI8
aa(lp81
S'02609'
p82
aI2
aI11
aI12
aI1
aI0
aI1
aI10
aI12
aI3
aI0
aI1
aI15
aI7
aI3
aI0
aI1
aI7
aI7
aI6
aI5
aI2
aI11
aI7
aI5
aI0
aI2
aI2
aI12
aI8
aI2
aI0
aI0
aI19
aI6
aI1
aI0
aI8
aI13
aI4
aI1
aI19
aI4
aI3
aa(lp83
S'02631'
p84
aI22
aI19
aI6
aI7
aI2
aI22
aI12
aI6
aI8
aI8
aI20
aI8
aI17
aI7
aI4
aI14
aI10
aI16
aI7
aI9
aI16
aI11
aI13
aI10
aI6
aI2
aI7
aI32
aI9
aI6
aI0
aI3
aI50
aI1
aI2
aI19
aI13
aI12
aI8
aI4
aI7
aI21
aI28
aa(lp85
S'02632'
p86
aI13
aI9
aI8
aI3
aI0
aI13
aI10
aI6
aI3
aI1
aI13
aI6
aI4
aI2
aI7
aI4
aI7
aI8
aI5
aI9
aI9
aI6
aI10
aI3
aI5
aI5
aI5
aI13
aI8
aI2
aI1
aI0
aI28
aI3
aI1
aI11
aI14
aI2
aI4
aI2
aI2
aI26
aI5
aa(lp87
S'02633'
p88
aI25
aI27
aI14
aI9
aI1
aI31
aI22
aI13
aI7
aI3
aI18
aI24
aI18
aI10
aI6
aI4
aI12
aI29
aI20
aI11
aI8
aI19
aI28
aI14
aI7
aI6
aI17
aI43
aI8
aI1
aI1
aI3
aI66
aI3
aI3
aI22
aI28
aI15
aI6
aI4
aI20
aI46
aI9
aa(lp89
S'02634'
p90
aI0
aI2
aI0
aI0
aI0
aI1
aI1
aI0
aI0
aI0
aI1
aI1
aI0
aI0
aI0
aI0
aI1
aI1
aI0
aI0
aI1
aI1
aI0
aI0
aI0
aI0
aI1
aI1
aI0
aI0
aI0
aI0
aI2
aI0
aI0
aI0
aI2
aI0
aI0
aI0
aI0
aI2
aI0
aa(lp91
S'10020'
p92
aI10
aI23
aI13
aI8
aI1
aI8
aI22
aI13
aI11
aI1
aI5
aI23
aI18
aI8
aI1
aI8
aI8
aI17
aI13
aI8
aI10
aI17
aI22
aI5
aI0
aI3
aI12
aI34
aI6
aI0
aI0
aI1
aI49
aI4
aI1
aI7
aI15
aI15
aI16
aI2
aI30
aI9
aI16
aa(lp93
S'10022'
p94
aI17
aI63
aI25
aI12
aI1
aI19
aI51
aI33
aI10
aI5
aI25
aI46
aI28
aI16
aI3
aI8
aI19
aI45
aI24
aI22
aI19
aI53
aI32
aI13
aI1
aI2
aI26
aI71
aI16
aI3
aI0
aI1
aI101
aI14
aI1
aI16
aI50
aI29
aI19
aI1
aI59
aI23
aI36
aa(lp95
S'10024'
p96
aI1
aI5
aI1
aI6
aI2
aI3
aI1
aI3
aI6
aI2
aI6
aI4
aI4
aI2
aI0
aI2
aI1
aI7
aI4
aI1
aI3
aI0
aI9
aI2
aI0
aI5
aI1
aI8
aI0
aI0
aI1
aI0
aI14
aI0
aI0
aI2
aI3
aI6
aI4
aI0
aI6
aI5
aI5
aa(lp97
S'10031'
p98
aI11
aI10
aI8
aI2
aI2
aI13
aI10
aI5
aI3
aI1
aI5
aI10
aI15
aI0
aI3
aI3
aI11
aI15
aI2
aI2
aI9
aI14
aI6
aI3
aI1
aI0
aI2
aI21
aI6
aI4
aI0
aI1
aI25
aI4
aI3
aI7
aI16
aI5
aI3
aI2
aI17
aI5
aI11
aa(lp99
S'10033'
p100
aI47
aI38
aI8
aI4
aI2
aI33
aI43
aI12
aI8
aI2
aI16
aI41
aI23
aI13
aI5
aI13
aI20
aI27
aI25
aI13
aI26
aI45
aI16
aI10
aI0
aI1
aI14
aI43
aI33
aI7
aI0
aI5
aI87
aI5
aI1
aI19
aI52
aI11
aI11
aI5
aI79
aI4
aI15
aa(lp101
S'10034'
p102
aI20
aI34
aI19
aI11
aI1
aI19
aI33
aI18
aI13
aI2
aI21
aI29
aI21
aI10
aI4
aI8
aI18
aI35
aI15
aI8
aI10
aI30
aI31
aI10
aI4
aI2
aI15
aI52
aI14
aI2
aI0
aI1
aI75
aI7
aI1
aI16
aI30
aI22
aI11
aI6
aI67
aI3
aI14
aa(lp103
S'10036'
p104
aI18
aI11
aI6
aI0
aI1
aI10
aI13
aI10
aI2
aI0
aI16
aI13
aI4
aI3
aI0
aI7
aI15
aI9
aI3
aI1
aI8
aI10
aI10
aI8
aI0
aI0
aI1
aI14
aI11
aI10
aI0
aI1
aI23
aI7
aI4
aI8
aI13
aI11
aI2
aI2
aI16
aI8
aI11
aa(lp105
S'10044'
p106
aI3
aI5
aI1
aI0
aI0
aI7
aI2
aI0
aI0
aI0
aI4
aI3
aI0
aI2
aI0
aI2
aI5
aI2
aI0
aI0
aI7
aI2
aI0
aI0
aI0
aI0
aI0
aI7
aI2
aI0
aI0
aI0
aI9
aI0
aI0
aI5
aI3
aI0
aI1
aI0
aI5
aI1
aI3
aa(lp107
S'10050'
p108
aI8
aI10
aI16
aI11
aI6
aI6
aI14
aI17
aI12
aI2
aI2
aI10
aI5
aI22
aI12
aI0
aI10
aI11
aI17
aI13
aI2
aI14
aI17
aI9
aI9
aI1
aI5
aI34
aI6
aI5
aI0
aI0
aI43
aI6
aI2
aI3
aI11
aI11
aI16
aI10
aI42
aI0
aI9
aa(lp109
S'10052'
p110
aI2
aI3
aI1
aI3
aI0
aI3
aI3
aI1
aI1
aI1
aI1
aI2
aI3
aI1
aI2
aI2
aI2
aI3
aI2
aI0
aI1
aI3
aI2
aI2
aI1
aI1
aI3
aI4
aI1
aI0
aI1
aI1
aI7
aI0
aI0
aI1
aI2
aI2
aI4
aI0
aI7
aI1
aI1
aa(lp111
S'10054'
p112
aI6
aI4
aI1
aI0
aI0
aI8
aI2
aI0
aI1
aI0
aI1
aI6
aI2
aI2
aI0
aI1
aI1
aI5
aI4
aI0
aI5
aI4
aI1
aI1
aI0
aI0
aI4
aI4
aI1
aI2
aI0
aI0
aI6
aI2
aI3
aI4
aI6
aI1
aI0
aI0
aI6
aI2
aI3
aa(lp113
S'10102'
p114
aI35
aI10
aI1
aI2
aI1
aI27
aI14
aI3
aI4
aI1
aI29
aI15
aI3
aI0
aI1
aI12
aI13
aI11
aI6
aI7
aI26
aI13
aI5
aI4
aI1
aI2
aI11
aI18
aI11
aI7
aI0
aI6
aI36
aI6
aI1
aI25
aI11
aI6
aI5
aI2
aI49
aI0
aI0
aa(lp115
S'10209'
p116
aI0
aI1
aI3
aI0
aI0
aI3
aI1
aI0
aI0
aI0
aI1
aI1
aI2
aI0
aI0
aI0
aI3
aI0
aI1
aI0
aI1
aI2
aI1
aI0
aI0
aI1
aI1
aI2
aI0
aI0
aI0
aI1
aI2
aI1
aI0
aI3
aI1
aI0
aI0
aI0
aI0
aI3
aI1
aa(lp117
S'10303'
p118
aI15
aI9
aI5
aI0
aI0
aI10
aI15
aI4
aI0
aI0
aI4
aI10
aI7
aI7
aI1
aI10
aI13
aI5
aI1
aI0
aI16
aI6
aI6
aI1
aI0
aI2
aI3
aI17
aI6
aI1
aI0
aI4
aI24
aI1
aI0
aI16
aI8
aI2
aI3
aI0
aI10
aI9
aI10
aa(lp119
S'10347'
p120
aI1
aI1
aI1
aI2
aI0
aI1
aI0
aI2
aI1
aI1
aI0
aI0
aI2
aI1
aI2
aI1
aI1
aI2
aI1
aI0
aI0
aI2
aI1
aI1
aI1
aI0
aI0
aI5
aI0
aI0
aI0
aI0
aI5
aI0
aI0
aI1
aI2
aI0
aI2
aI0
aI4
aI0
aI1
aa(lp121
S'10420'
p122
aI3
aI3
aI2
aI0
aI0
aI7
aI1
aI0
aI0
aI0
aI2
aI3
aI3
aI0
aI0
aI3
aI3
aI1
aI1
aI0
aI7
aI0
aI1
aI0
aI0
aI0
aI0
aI2
aI6
aI0
aI0
aI0
aI8
aI0
aI0
aI6
aI2
aI0
aI0
aI0
aI7
aI1
aI0
aa(lp123
S'10467'
p124
aI1
aI0
aI0
aI0
aI0
aI1
aI0
aI0
aI0
aI0
aI0
aI1
aI0
aI0
aI0
aI1
aI0
aI0
aI0
aI0
aI1
aI0
aI0
aI0
aI0
aI0
aI1
aI0
aI0
aI0
aI0
aI0
aI1
aI0
aI0
aI0
aI1
aI0
aI0
aI0
aI0
aI1
aI0
aa(lp125
S'10900'
p126
aI2
aI1
aI2
aI1
aI1
aI2
aI2
aI2
aI0
aI0
aI0
aI1
aI5
aI0
aI1
aI1
aI1
aI2
aI2
aI1
aI2
aI0
aI3
aI1
aI1
aI0
aI2
aI4
aI1
aI0
aI1
aI0
aI5
aI0
aI1
aI2
aI1
aI1
aI2
aI1
aI1
aI3
aI3
aa(lp127
S'11000'
p128
aI7
aI18
aI12
aI3
aI2
aI8
aI13
aI14
aI8
aI0
aI7
aI8
aI14
aI12
aI2
aI4
aI10
aI12
aI10
aI7
aI5
aI17
aI12
aI7
aI2
aI2
aI9
aI23
aI5
aI4
aI0
aI2
aI39
aI2
aI0
aI6
aI15
aI11
aI9
aI2
aI11
aI21
aI11
aa(lp129
S'11010'
p130
aI9
aI16
aI12
aI10
aI1
aI17
aI16
aI11
aI2
aI1
aI1
aI20
aI18
aI7
aI2
aI1
aI8
aI22
aI12
aI5
aI6
aI21
aI10
aI7
aI3
aI0
aI9
aI22
aI17
aI0
aI0
aI2
aI42
aI3
aI1
aI9
aI16
aI9
aI13
aI1
aI4
aI43
aI1
aa(lp131
S'11031'
p132
aI14
aI12
aI5
aI1
aI0
aI18
aI10
aI3
aI0
aI0
aI5
aI6
aI12
aI4
aI4
aI4
aI6
aI7
aI5
aI8
aI7
aI11
aI12
aI1
aI0
aI0
aI7
aI13
aI7
aI4
aI1
aI2
aI18
aI8
aI2
aI5
aI14
aI8
aI2
aI1
aI4
aI17
aI11
aa(lp133
S'11110'
p134
aI0
aI0
aI0
aI0
aI0
aI0
aI0
aI0
aI0
aI0
aI0
aI0
aI0
aI0
aI0
aI0
aI0
aI0
aI0
aI0
aI0
aI0
aI0
aI0
aI0
aI0
aI0
aI0
aI0
aI0
aI0
aI0
aI0
aI0
aI0
aI0
aI0
aI0
aI0
aI0
aI0
aI0
aI0
aa(lp135
S'11112'
p136
aI2
aI4
aI5
aI0
aI0
aI3
aI4
aI3
aI1
aI0
aI3
aI4
aI4
aI0
aI0
aI1
aI1
aI3
aI3
aI3
aI4
aI3
aI4
aI0
aI0
aI0
aI3
aI7
aI1
aI0
aI0
aI0
aI11
aI0
aI0
aI3
aI6
aI2
aI0
aI0
aI1
aI7
aI3
aa(lp137
S'11121'
p138
aI7
aI9
aI8
aI6
aI2
aI7
aI9
aI9
aI7
aI0
aI1
aI10
aI7
aI10
aI4
aI0
aI7
aI6
aI9
aI10
aI4
aI8
aI11
aI9
aI0
aI1
aI6
aI21
aI4
aI0
aI0
aI0
aI26
aI3
aI2
aI5
aI11
aI7
aI5
aI4
aI16
aI9
aI7
aa(lp139
S'11140'
p140
aI0
aI0
aI0
aI0
aI0
aI0
aI0
aI0
aI0
aI0
aI0
aI0
aI0
aI0
aI0
aI0
aI0
aI0
aI0
aI0
aI0
aI0
aI0
aI0
aI0
aI0
aI0
aI0
aI0
aI0
aI0
aI0
aI0
aI0
aI0
aI0
aI0
aI0
aI0
aI0
aI0
aI0
aI0
aa(lp141
S'11141'
p142
aI13
aI16
aI7
aI1
aI0
aI6
aI17
aI9
aI4
aI0
aI7
aI17
aI11
aI1
aI1
aI4
aI8
aI16
aI8
aI1
aI12
aI18
aI6
aI0
aI1
aI0
aI13
aI18
aI5
aI1
aI0
aI1
aI26
aI7
aI1
aI10
aI19
aI5
aI1
aI2
aI29
aI3
aI5
aa(lp143
S'11203'
p144
aI6
aI2
aI1
aI1
aI0
aI3
aI1
aI3
aI2
aI1
aI2
aI1
aI6
aI1
aI0
aI1
aI1
aI5
aI1
aI2
aI3
aI4
aI2
aI1
aI0
aI4
aI3
aI3
aI0
aI0
aI0
aI0
aI9
aI0
aI0
aI6
aI2
aI2
aI0
aI0
aI1
aI7
aI2
aa(lp145
S'11305'
p146
aI2
aI7
aI7
aI4
aI1
aI1
aI7
aI7
aI3
aI3
aI0
aI4
aI8
aI7
aI2
aI0
aI1
aI10
aI4
aI6
aI1
aI3
aI7
aI8
aI2
aI1
aI0
aI10
aI7
aI3
aI0
aI2
aI13
aI2
aI2
aI0
aI4
aI7
aI7
aI3
aI9
aI7
aI5
aa(lp147
S'11311'
p148
aI17
aI11
aI2
aI2
aI1
aI10
aI14
aI3
aI4
aI1
aI13
aI12
aI4
aI1
aI2
aI5
aI4
aI15
aI5
aI3
aI8
aI16
aI6
aI1
aI1
aI0
aI8
aI18
aI6
aI0
aI0
aI0
aI30
aI0
aI2
aI16
aI10
aI4
aI0
aI2
aI22
aI5
aI5
aa(lp149
S'11318'
p150
aI8
aI11
aI2
aI1
aI0
aI4
aI12
aI2
aI3
aI0
aI2
aI10
aI6
aI3
aI0
aI0
aI4
aI8
aI6
aI3
aI1
aI12
aI7
aI1
aI0
aI0
aI1
aI16
aI4
aI0
aI0
aI0
aI19
aI1
aI1
aI5
aI10
aI5
aI1
aI0
aI4
aI13
aI4
aa(lp151
S'11341'
p152
aI2
aI12
aI9
aI10
aI5
aI2
aI6
aI9
aI12
aI9
aI1
aI10
aI7
aI13
aI7
aI1
aI1
aI5
aI17
aI13
aI0
aI7
aI11
aI9
aI11
aI0
aI4
aI22
aI7
aI5
aI0
aI0
aI21
aI10
aI6
aI0
aI8
aI5
aI13
aI12
aI1
aI29
aI8
aa(lp153
S'11342'
p154
aI4
aI6
aI5
aI1
aI1
aI3
aI8
aI2
aI3
aI1
aI2
aI3
aI6
aI5
aI1
aI0
aI1
aI4
aI4
aI8
aI1
aI4
aI6
aI5
aI1
aI0
aI3
aI10
aI4
aI0
aI0
aI0
aI11
aI4
aI1
aI3
aI3
aI4
aI3
aI3
aI2
aI8
aI7
aa(lp155
S'11343'
p156
aI3
aI5
aI7
aI7
aI6
aI3
aI4
aI5
aI7
aI9
aI2
aI4
aI5
aI6
aI11
aI1
aI1
aI5
aI5
aI15
aI3
aI1
aI5
aI8
aI11
aI1
aI3
aI11
aI11
aI2
aI0
aI0
aI23
aI4
aI1
aI2
aI5
aI5
aI3
aI13
aI1
aI22
aI5
aa(lp157
S'11411'
p158
aI3
aI11
aI7
aI8
aI1
aI5
aI6
aI9
aI6
aI3
aI5
aI12
aI7
aI3
aI2
aI1
aI5
aI9
aI9
aI5
aI1
aI9
aI11
aI5
aI3
aI0
aI1
aI19
aI7
aI2
aI0
aI1
aI22
aI2
aI4
aI3
aI7
aI8
aI10
aI1
aI3
aI17
aI9
aa(lp159
S'11450'
p160
aI0
aI0
aI3
aI2
aI0
aI0
aI2
aI2
aI1
aI0
aI0
aI0
aI2
aI1
aI2
aI0
aI0
aI1
aI1
aI3
aI0
aI0
aI4
aI1
aI0
aI0
aI2
aI3
aI0
aI0
aI0
aI1
aI4
aI0
aI0
aI0
aI0
aI3
aI1
aI1
aI0
aI5
aI0
aa(lp161
S'11462'
p162
aI1
aI2
aI11
aI3
aI1
aI0
aI6
aI8
aI2
aI2
aI1
aI1
aI6
aI6
aI4
aI0
aI1
aI6
aI3
aI8
aI0
aI8
aI5
aI3
aI2
aI4
aI2
aI11
aI1
aI0
aI0
aI1
aI17
aI0
aI0
aI1
aI4
aI7
aI6
aI0
aI0
aI12
aI5
aa(lp163
S'11463'
p164
aI14
aI9
aI3
aI0
aI1
aI18
aI6
aI1
aI1
aI1
aI4
aI9
aI7
aI3
aI4
aI2
aI3
aI14
aI3
aI5
aI5
aI13
aI5
aI4
aI0
aI0
aI1
aI7
aI8
aI11
aI0
aI0
aI26
aI0
aI1
aI9
aI11
aI3
aI3
aI1
aI1
aI24
aI2
aa(lp165
S'11525'
p166
aI0
aI0
aI0
aI0
aI0
aI0
aI0
aI0
aI0
aI0
aI0
aI0
aI0
aI0
aI0
aI0
aI0
aI0
aI0
aI0
aI0
aI0
aI0
aI0
aI0
aI0
aI0
aI0
aI0
aI0
aI0
aI0
aI0
aI0
aI0
aI0
aI0
aI0
aI0
aI0
aI0
aI0
aI0
aa(lp167
S'11561'
p168
aI3
aI13
aI4
aI0
aI1
aI5
aI11
aI3
aI1
aI1
aI1
aI9
aI8
aI3
aI0
aI2
aI5
aI8
aI6
aI0
aI1
aI4
aI10
aI5
aI1
aI0
aI3
aI8
aI8
aI2
aI0
aI0
aI20
aI1
aI0
aI4
aI6
aI4
aI7
aI0
aI2
aI19
aI0
aa(lp169
S'11562'
p170
aI4
aI18
aI7
aI5
aI0
aI9
aI10
aI9
aI1
aI5
aI6
aI12
aI10
aI5
aI1
aI1
aI10
aI12
aI7
aI4
aI6
aI12
aI10
aI3
aI3
aI0
aI6
aI18
aI6
aI4
aI0
aI1
aI21
aI12
aI0
aI4
aI8
aI11
aI9
aI2
aI15
aI8
aI11
aa(lp171
S'11691'
p172
aI4
aI10
aI4
aI3
aI0
aI8
aI7
aI3
aI1
aI1
aI1
aI5
aI7
aI3
aI4
aI0
aI8
aI5
aI4
aI3
aI2
aI6
aI4
aI4
aI4
aI0
aI1
aI10
aI6
aI3
aI0
aI0
aI18
aI2
aI0
aI2
aI8
aI6
aI1
aI3
aI8
aI6
aI6
aa(lp173
S'11990'
p174
aI2
aI4
aI6
aI2
aI0
aI6
aI1
aI2
aI3
aI2
aI1
aI4
aI4
aI2
aI3
aI0
aI0
aI5
aI1
aI8
aI0
aI3
aI7
aI1
aI3
aI0
aI0
aI10
aI2
aI1
aI0
aI0
aI10
aI3
aI0
aI2
aI5
aI3
aI3
aI1
aI0
aI11
aI3
aa(lp175
S'11993'
p176
aI3
aI4
aI7
aI3
aI0
aI5
aI6
aI5
aI1
aI0
aI3
aI6
aI4
aI4
aI0
aI0
aI4
aI6
aI6
aI1
aI4
aI4
aI6
aI3
aI0
aI0
aI3
aI10
aI4
aI0
aI0
aI1
aI16
aI0
aI0
aI1
aI9
aI4
aI3
aI0
aI14
aI1
aI2
aa(lp177
S'11994'
p178
aI9
aI1
aI1
aI0
aI0
aI11
aI0
aI0
aI0
aI0
aI8
aI2
aI1
aI0
aI0
aI5
aI2
aI4
aI0
aI0
aI8
aI3
aI0
aI0
aI0
aI0
aI1
aI7
aI3
aI0
aI0
aI0
aI11
aI0
aI0
aI9
aI1
aI0
aI1
aI0
aI1
aI9
aI1
aa(lp179
S'11995'
p180
aI1
aI3
aI4
aI3
aI3
aI2
aI7
aI3
aI1
aI1
aI2
aI1
aI3
aI3
aI5
aI1
aI0
aI3
aI7
aI3
aI3
aI2
aI1
aI4
aI4
aI2
aI1
aI10
aI0
aI1
aI0
aI2
aI12
aI0
aI0
aI2
aI1
aI5
aI4
aI2
aI10
aI2
aI2
aa(lp181
S'11996'
p182
aI1
aI3
aI3
aI1
aI2
aI4
aI0
aI2
aI3
aI1
aI1
aI1
aI3
aI2
aI3
aI0
aI2
aI4
aI1
aI3
aI0
aI1
aI4
aI2
aI3
aI0
aI0
aI7
aI2
aI1
aI0
aI1
aI9
aI0
aI0
aI1
aI2
aI3
aI2
aI2
aI3
aI6
aI1
aa(lp183
S'11997'
p184
aI12
aI3
aI1
aI1
aI1
aI12
aI3
aI2
aI1
aI0
aI12
aI3
aI0
aI1
aI2
aI3
aI2
aI5
aI1
aI7
aI11
aI1
aI4
aI1
aI1
aI0
aI1
aI14
aI2
aI0
aI0
aI1
aI16
aI0
aI0
aI10
aI3
aI2
aI2
aI1
aI0
aI13
aI5
aa(lp185
S'12000'
p186
aI22
aI13
aI4
aI1
aI3
aI21
aI15
aI3
aI0
aI4
aI7
aI16
aI11
aI5
aI3
aI12
aI13
aI13
aI5
aI0
aI13
aI19
aI7
aI2
aI2
aI3
aI11
aI24
aI5
aI0
aI2
aI4
aI35
aI2
aI0
aI23
aI16
aI1
aI0
aI3
aI42
aI0
aI1
aa(lp187
S'12003'
p188
aI8
aI9
aI3
aI3
aI1
aI15
aI5
aI2
aI0
aI2
aI9
aI11
aI1
aI2
aI1
aI3
aI5
aI13
aI2
aI1
aI11
aI7
aI2
aI4
aI0
aI0
aI1
aI7
aI13
aI3
aI0
aI0
aI22
aI1
aI0
aI11
aI8
aI2
aI2
aI1
aI2
aI18
aI4
aa(lp189
S'12102'
p190
aI12
aI5
aI3
aI0
aI1
aI13
aI6
aI0
aI2
aI0
aI6
aI9
aI3
aI2
aI0
aI7
aI8
aI2
aI3
aI1
aI12
aI7
aI2
aI0
aI0
aI0
aI1
aI13
aI4
aI3
aI0
aI0
aI19
aI2
aI0
aI13
aI6
aI1
aI0
aI1
aI13
aI1
aI7
aa(lp191
S'12134'
p192
aI4
aI5
aI5
aI2
aI0
aI2
aI9
aI3
aI2
aI0
aI3
aI4
aI6
aI2
aI1
aI1
aI6
aI5
aI3
aI1
aI3
aI6
aI3
aI3
aI1
aI0
aI2
aI12
aI1
aI1
aI0
aI1
aI15
aI0
aI0
aI1
aI6
aI8
aI0
aI1
aI13
aI1
aI2
aa(lp193
S'12139'
p194
aI6
aI17
aI8
aI10
aI2
aI4
aI12
aI17
aI8
aI2
aI7
aI15
aI9
aI10
aI2
aI7
aI12
aI10
aI9
aI4
aI9
aI12
aI14
aI5
aI2
aI2
aI8
aI24
aI8
aI1
aI2
aI4
aI35
aI1
aI0
aI6
aI21
aI7
aI9
aI0
aI5
aI23
aI15
aa(lp195
S'12202'
p196
aI10
aI20
aI20
aI4
aI1
aI12
aI24
aI15
aI4
aI0
aI3
aI10
aI23
aI15
aI4
aI7
aI14
aI22
aI12
aI0
aI13
aI25
aI13
aI1
aI3
aI2
aI4
aI33
aI16
aI0
aI0
aI1
aI52
aI1
aI0
aI10
aI25
aI11
aI7
aI1
aI11
aI21
aI23
aa(lp197
S'12203'
p198
aI1
aI0
aI0
aI0
aI0
aI1
aI0
aI0
aI0
aI0
aI0
aI1
aI0
aI0
aI0
aI0
aI1
aI0
aI0
aI0
aI1
aI0
aI0
aI0
aI0
aI0
aI0
aI1
aI0
aI0
aI0
aI0
aI1
aI0
aI0
aI1
aI0
aI0
aI0
aI0
aI0
aI0
aI1
aa(lp199
S'12205'
p200
aI3
aI19
aI6
aI3
aI0
aI5
aI18
aI6
aI2
aI0
aI8
aI12
aI8
aI3
aI0
aI4
aI4
aI5
aI17
aI1
aI4
aI11
aI12
aI4
aI0
aI0
aI4
aI22
aI4
aI1
aI0
aI1
aI28
aI2
aI0
aI4
aI18
aI6
aI3
aI0
aI9
aI15
aI7
aa(lp201
S'12210'
p202
aI14
aI4
aI3
aI0
aI0
aI18
aI2
aI1
aI0
aI0
aI8
aI9
aI3
aI1
aI0
aI9
aI8
aI4
aI0
aI0
aI11
aI8
aI2
aI0
aI0
aI1
aI0
aI10
aI10
aI0
aI0
aI0
aI20
aI1
aI0
aI14
aI3
aI2
aI2
aI0
aI0
aI16
aI5
aa(lp203
S'12320'
p204
aI15
aI11
aI6
aI0
aI1
aI13
aI7
aI10
aI2
aI0
aI8
aI6
aI10
aI3
aI6
aI6
aI7
aI10
aI6
aI4
aI9
aI11
aI6
aI5
aI2
aI0
aI1
aI17
aI11
aI4
aI0
aI2
aI25
aI6
aI0
aI9
aI12
aI7
aI2
aI3
aI12
aI15
aI6
aa(lp205
S'12500'
p206
aI4
aI7
aI1
aI0
aI0
aI3
aI2
aI5
aI2
aI0
aI3
aI4
aI2
aI2
aI1
aI0
aI3
aI6
aI1
aI2
aI2
aI7
aI0
aI3
aI0
aI1
aI5
aI6
aI0
aI0
aI0
aI0
aI11
aI0
aI0
aI4
aI5
aI2
aI0
aI1
aI1
aI10
aI1
aa(lp207
S'12810'
p208
aI0
aI0
aI0
aI0
aI0
aI0
aI0
aI0
aI0
aI0
aI0
aI0
aI0
aI0
aI0
aI0
aI0
aI0
aI0
aI0
aI0
aI0
aI0
aI0
aI0
aI0
aI0
aI0
aI0
aI0
aI0
aI0
aI0
aI0
aI0
aI0
aI0
aI0
aI0
aI0
aI0
aI0
aI0
aa(lp209
S'12811'
p210
aI0
aI0
aI0
aI0
aI0
aI0
aI0
aI0
aI0
aI0
aI0
aI0
aI0
aI0
aI0
aI0
aI0
aI0
aI0
aI0
aI0
aI0
aI0
aI0
aI0
aI0
aI0
aI0
aI0
aI0
aI0
aI0
aI0
aI0
aI0
aI0
aI0
aI0
aI0
aI0
aI0
aI0
aI0
aa(lp211
S'23561'
p212
aI5
aI3
aI0
aI0
aI0
aI6
aI2
aI0
aI0
aI0
aI1
aI3
aI3
aI1
aI0
aI1
aI3
aI3
aI1
aI0
aI3
aI4
aI1
aI0
aI0
aI0
aI1
aI6
aI0
aI1
aI0
aI0
aI7
aI1
aI0
aI6
aI2
aI0
aI0
aI0
aI2
aI6
aI0
aa(lp213
S'23711'
p214
aI1
aI1
aI4
aI2
aI1
aI0
aI2
aI4
aI2
aI1
aI1
aI0
aI8
aI0
aI0
aI0
aI1
aI3
aI3
aI2
aI1
aI1
aI4
aI2
aI1
aI0
aI2
aI4
aI3
aI0
aI0
aI0
aI7
aI2
aI0
aI1
aI2
aI4
aI1
aI1
aI8
aI0
aI1
aa(lp215
S'23732'
p216
aI5
aI13
aI6
aI4
aI4
aI4
aI11
aI8
aI4
aI5
aI3
aI8
aI10
aI6
aI5
aI2
aI7
aI8
aI11
aI4
aI5
aI13
aI8
aI3
aI3
aI0
aI5
aI17
aI5
aI5
aI0
aI0
aI22
aI9
aI1
aI5
aI8
aI9
aI8
aI2
aI21
aI8
aI3
aa(lp217
S'24001'
p218
aI14
aI16
aI1
aI2
aI0
aI8
aI14
aI7
aI3
aI1
aI8
aI11
aI8
aI4
aI2
aI3
aI7
aI12
aI7
aI4
aI10
aI14
aI8
aI0
aI1
aI0
aI3
aI13
aI12
aI5
aI0
aI0
aI19
aI10
aI4
aI11
aI13
aI3
aI6
aI0
aI8
aI16
aI9
aa(lp219
S'24002'
p220
aI2
aI6
aI3
aI1
aI0
aI5
aI6
aI1
aI0
aI0
aI1
aI7
aI3
aI1
aI0
aI0
aI0
aI2
aI5
aI5
aI3
aI4
aI4
aI1
aI0
aI0
aI3
aI8
aI1
aI0
aI0
aI2
aI8
aI2
aI0
aI1
aI6
aI4
aI1
aI0
aI11
aI0
aI1
aa(lp221
S'24005'
p222
aI4
aI11
aI2
aI4
aI0
aI12
aI4
aI5
aI0
aI0
aI1
aI4
aI6
aI8
aI2
aI1
aI11
aI6
aI2
aI1
aI9
aI8
aI3
aI1
aI0
aI0
aI8
aI11
aI1
aI0
aI0
aI5
aI14
aI1
aI0
aI7
aI11
aI2
aI1
aI0
aI3
aI16
aI2
aa(lp223
S'24007'
p224
aI0
aI0
aI0
aI0
aI0
aI0
aI0
aI0
aI0
aI0
aI0
aI0
aI0
aI0
aI0
aI0
aI0
aI0
aI0
aI0
aI0
aI0
aI0
aI0
aI0
aI0
aI0
aI0
aI0
aI0
aI0
aI0
aI0
aI0
aI0
aI0
aI0
aI0
aI0
aI0
aI0
aI0
aI0
aa(lp225
S'25102'
p226
aI1
aI3
aI0
aI1
aI0
aI3
aI1
aI0
aI0
aI1
aI0
aI2
aI2
aI1
aI0
aI0
aI0
aI5
aI0
aI0
aI0
aI3
aI1
aI1
aI0
aI0
aI0
aI2
aI3
aI0
aI0
aI0
aI5
aI0
aI0
aI3
aI1
aI0
aI0
aI1
aI1
aI3
aI1
aa(lp227
S'25104'
p228
aI3
aI4
aI1
aI1
aI0
aI3
aI2
aI3
aI1
aI0
aI1
aI5
aI2
aI1
aI0
aI0
aI4
aI2
aI2
aI1
aI2
aI2
aI1
aI3
aI1
aI0
aI6
aI3
aI0
aI0
aI0
aI0
aI9
aI0
aI0
aI2
aI5
aI1
aI1
aI0
aI6
aI2
aI1
aa(lp229
S'26000'
p230
aI18
aI30
aI17
aI2
aI1
aI14
aI30
aI18
aI5
aI1
aI14
aI35
aI16
aI3
aI0
aI6
aI22
aI25
aI12
aI3
aI16
aI26
aI18
aI5
aI3
aI3
aI14
aI42
aI8
aI1
aI1
aI3
aI57
aI6
aI0
aI15
aI35
aI12
aI6
aI0
aI19
aI28
aI21
aa(lp231
S'26003'
p232
aI1
aI4
aI1
aI0
aI0
aI6
aI0
aI0
aI0
aI0
aI2
aI3
aI0
aI1
aI0
aI1
aI0
aI5
aI0
aI0
aI2
aI2
aI2
aI0
aI0
aI0
aI0
aI0
aI5
aI1
aI0
aI1
aI4
aI1
aI0
aI0
aI4
aI0
aI2
aI0
aI0
aI6
aI0
aa(lp233
S'26006'
p234
aI3
aI11
aI2
aI0
aI0
aI0
aI15
aI1
aI0
aI0
aI1
aI10
aI5
aI0
aI0
aI2
aI6
aI5
aI2
aI0
aI4
aI8
aI3
aI0
aI0
aI0
aI2
aI10
aI2
aI1
aI0
aI1
aI13
aI1
aI0
aI0
aI9
aI5
aI0
aI0
aI4
aI6
aI6
aa(lp235
S'26008'
p236
aI17
aI25
aI7
aI3
aI2
aI34
aI11
aI6
aI1
aI2
aI16
aI18
aI17
aI1
aI2
aI14
aI27
aI9
aI4
aI0
aI17
aI19
aI11
aI6
aI1
aI2
aI10
aI33
aI6
aI3
aI0
aI2
aI47
aI3
aI1
aI22
aI22
aI5
aI3
aI2
aI6
aI33
aI15
aa(lp237
S'26009'
p238
aI9
aI4
aI1
aI1
aI0
aI12
aI2
aI0
aI0
aI1
aI8
aI4
aI2
aI1
aI0
aI7
aI6
aI1
aI0
aI1
aI8
aI4
aI2
aI0
aI1
aI2
aI1
aI9
aI1
aI2
aI0
aI0
aI15
aI0
aI0
aI8
aI4
aI0
aI2
aI1
aI0
aI14
aI1
aa(lp239
S'26010'
p240
aI5
aI5
aI1
aI0
aI0
aI9
aI0
aI1
aI1
aI0
aI1
aI4
aI5
aI1
aI0
aI5
aI2
aI3
aI1
aI0
aI3
aI5
aI3
aI0
aI0
aI0
aI2
aI6
aI3
aI0
aI0
aI0
aI11
aI0
aI0
aI6
aI3
aI2
aI0
aI0
aI0
aI11
aI0
aa(lp241
g2
aI9
aI19
aI33
aI18
aI10
aI7
aI22
aI32
aI18
aI10
aI14
aI18
aI34
aI17
aI5
aI2
aI8
aI37
aI17
aI24
aI4
aI20
aI41
aI13
aI9
aI12
aI26
aI45
aI5
aI0
aI0
aI9
aI72
aI6
aI1
aI5
aI26
aI29
aI15
aI13
aI23
aI32
aI32
aa(lp242
S'26050'
p243
aI20
aI39
aI41
aI17
aI7
aI16
aI46
aI34
aI19
aI8
aI14
aI36
aI35
aI18
aI19
aI8
aI32
aI40
aI26
aI16
aI11
aI44
aI41
aI20
aI6
aI7
aI30
aI64
aI17
aI3
aI3
aI8
aI102
aI10
aI0
aI14
aI49
aI34
aI17
aI9
aI38
aI55
aI30
aa(lp244
S'26122'
p245
aI4
aI4
aI0
aI0
aI0
aI8
aI0
aI0
aI0
aI0
aI1
aI6
aI1
aI0
aI0
aI4
aI4
aI0
aI0
aI0
aI8
aI0
aI0
aI0
aI0
aI0
aI0
aI8
aI0
aI0
aI0
aI1
aI7
aI0
aI0
aI8
aI0
aI0
aI0
aI0
aI1
aI4
aI3
aa(lp246
S'26124'
p247
aI14
aI14
aI6
aI1
aI0
aI12
aI17
aI5
aI0
aI1
aI8
aI16
aI7
aI3
aI1
aI7
aI11
aI13
aI4
aI0
aI12
aI13
aI9
aI1
aI0
aI1
aI9
aI21
aI3
aI1
aI0
aI0
aI31
aI3
aI0
aI13
aI14
aI6
aI1
aI1
aI28
aI1
aI6
aa(lp248
S'26125'
p249
aI0
aI0
aI0
aI0
aI0
aI0
aI0
aI0
aI0
aI0
aI0
aI0
aI0
aI0
aI0
aI0
aI0
aI0
aI0
aI0
aI0
aI0
aI0
aI0
aI0
aI0
aI0
aI0
aI0
aI0
aI0
aI0
aI0
aI0
aI0
aI0
aI0
aI0
aI0
aI0
aI0
aI0
aI0
aa(lp250
S'26199'
p251
aI1
aI0
aI0
aI0
aI0
aI1
aI0
aI0
aI0
aI0
aI0
aI0
aI1
aI0
aI0
aI0
aI1
aI0
aI0
aI0
aI1
aI0
aI0
aI0
aI0
aI0
aI0
aI1
aI0
aI0
aI0
aI0
aI1
aI0
aI0
aI1
aI0
aI0
aI0
aI0
aI0
aI1
aI0
aa(lp252
S'26201'
p253
aI8
aI10
aI2
aI1
aI0
aI8
aI7
aI5
aI1
aI0
aI7
aI6
aI6
aI2
aI0
aI5
aI7
aI5
aI4
aI0
aI9
aI6
aI5
aI1
aI0
aI0
aI1
aI17
aI3
aI0
aI0
aI0
aI19
aI2
aI0
aI10
aI5
aI4
aI2
aI0
aI13
aI5
aI3
aa(lp254
S'26202'
p255
aI5
aI7
aI4
aI4
aI2
aI6
aI11
aI2
aI2
aI1
aI5
aI5
aI6
aI4
aI2
aI4
aI4
aI8
aI3
aI3
aI3
aI5
aI7
aI5
aI2
aI0
aI3
aI13
aI3
aI3
aI0
aI0
aI12
aI9
aI1
aI1
aI7
aI8
aI4
aI2
aI7
aI9
aI6
aa(lp256
S'26222'
p257
aI13
aI4
aI2
aI1
aI0
aI12
aI7
aI0
aI1
aI0
aI8
aI10
aI0
aI2
aI0
aI2
aI7
aI9
aI2
aI0
aI9
aI10
aI0
aI1
aI0
aI0
aI1
aI16
aI3
aI0
aI0
aI0
aI19
aI1
aI0
aI14
aI5
aI1
aI0
aI0
aI20
aI0
aI0
aa(lp258
S'26225'
p259
aI5
aI2
aI0
aI0
aI0
aI6
aI1
aI0
aI0
aI0
aI4
aI3
aI0
aI0
aI0
aI6
aI1
aI0
aI0
aI0
aI5
aI1
aI0
aI1
aI0
aI0
aI0
aI4
aI3
aI0
aI0
aI0
aI7
aI0
aI0
aI5
aI2
aI0
aI0
aI0
aI3
aI4
aI0
aa(lp260
S'26245'
p261
aI4
aI1
aI1
aI0
aI0
aI5
aI1
aI0
aI0
aI0
aI3
aI3
aI0
aI0
aI0
aI0
aI2
aI4
aI0
aI0
aI4
aI2
aI0
aI0
aI0
aI0
aI1
aI4
aI0
aI1
aI0
aI2
aI4
aI0
aI0
aI4
aI2
aI0
aI0
aI0
aI0
aI6
aI0
aa(lp262
S'26261'
p263
aI2
aI2
aI1
aI0
aI0
aI2
aI1
aI2
aI0
aI0
aI2
aI2
aI1
aI0
aI0
aI1
aI1
aI1
aI2
aI0
aI1
aI2
aI1
aI1
aI0
aI0
aI0
aI3
aI2
aI0
aI1
aI0
aI4
aI0
aI0
aI2
aI2
aI0
aI1
aI0
aI0
aI2
aI3
aa(lp264
S'26299'
p265
aI2
aI1
aI1
aI0
aI0
aI1
aI1
aI2
aI0
aI0
aI1
aI0
aI3
aI0
aI0
aI0
aI0
aI3
aI1
aI0
aI0
aI1
aI3
aI0
aI0
aI0
aI1
aI2
aI1
aI0
aI0
aI0
aI3
aI1
aI0
aI1
aI2
aI1
aI0
aI0
aI0
aI4
aI0
aa(lp266
S'26301'
p267
aI7
aI12
aI9
aI1
aI0
aI15
aI11
aI2
aI1
aI0
aI6
aI5
aI14
aI4
aI0
aI8
aI8
aI9
aI3
aI0
aI9
aI11
aI6
aI0
aI1
aI0
aI4
aI15
aI7
aI2
aI0
aI1
aI24
aI2
aI1
aI4
aI11
aI11
aI1
aI0
aI3
aI17
aI9
aa(lp268
S'26400'
p269
aI53
aI29
aI4
aI2
aI2
aI43
aI32
aI11
aI4
aI0
aI46
aI28
aI12
aI2
aI2
aI25
aI27
aI21
aI15
aI2
aI46
aI24
aI14
aI3
aI3
aI1
aI4
aI44
aI29
aI11
aI1
aI2
aI60
aI18
aI9
aI36
aI35
aI9
aI9
aI1
aI7
aI55
aI27
aa(lp270
S'26407'
p271
aI4
aI1
aI0
aI0
aI0
aI5
aI0
aI0
aI0
aI0
aI3
aI2
aI0
aI0
aI0
aI3
aI1
aI1
aI0
aI0
aI5
aI0
aI0
aI0
aI0
aI0
aI1
aI3
aI1
aI0
aI0
aI1
aI3
aI1
aI0
aI4
aI1
aI0
aI0
aI0
aI1
aI4
aI0
aa(lp272
S'26411'
p273
aI35
aI15
aI1
aI0
aI0
aI29
aI19
aI1
aI1
aI0
aI28
aI12
aI7
aI3
aI0
aI20
aI17
aI13
aI1
aI0
aI31
aI13
aI6
aI1
aI0
aI1
aI6
aI36
aI5
aI3
aI0
aI1
aI42
aI7
aI1
aI30
aI16
aI4
aI0
aI0
aI12
aI25
aI14
aa(lp274
S'26426'
p275
aI16
aI17
aI5
aI5
aI0
aI11
aI18
aI8
aI6
aI0
aI17
aI15
aI10
aI1
aI0
aI8
aI8
aI16
aI5
aI6
aI12
aI17
aI12
aI2
aI0
aI2
aI3
aI27
aI7
aI4
aI3
aI4
aI30
aI5
aI1
aI15
aI15
aI7
aI6
aI0
aI6
aI21
aI16
aa(lp276
S'26428'
p277
aI6
aI6
aI4
aI1
aI0
aI7
aI7
aI2
aI0
aI1
aI4
aI7
aI5
aI1
aI0
aI4
aI4
aI7
aI1
aI1
aI6
aI4
aI5
aI1
aI1
aI0
aI0
aI13
aI4
aI0
aI0
aI0
aI15
aI2
aI0
aI5
aI6
aI5
aI1
aI0
aI10
aI3
aI4
aa(lp278
S'26499'
p279
aI7
aI1
aI1
aI0
aI0
aI6
aI1
aI2
aI0
aI0
aI3
aI4
aI1
aI0
aI0
aI2
aI4
aI1
aI1
aI1
aI4
aI1
aI3
aI1
aI0
aI0
aI0
aI6
aI2
aI0
aI0
aI0
aI8
aI1
aI0
aI4
aI5
aI0
aI0
aI0
aI1
aI7
aI0
aa(lp280
S'27002'
p281
aI14
aI42
aI22
aI11
aI1
aI11
aI35
aI27
aI13
aI3
aI28
aI38
aI14
aI9
aI0
aI9
aI19
aI36
aI14
aI11
aI11
aI38
aI26
aI12
aI1
aI5
aI22
aI43
aI16
aI3
aI2
aI8
aI63
aI9
aI6
aI17
aI42
aI18
aI9
aI0
aI42
aI28
aI18
aa(lp282
S'27004'
p283
aI7
aI8
aI15
aI10
aI1
aI9
aI12
aI8
aI11
aI1
aI4
aI12
aI16
aI7
aI2
aI1
aI8
aI13
aI15
aI4
aI5
aI5
aI6
aI15
aI10
aI7
aI13
aI19
aI1
aI1
aI0
aI5
aI33
aI0
aI1
aI3
aI10
aI13
aI11
aI4
aI20
aI13
aI8
aa(lp284
S'27007'
p285
aI11
aI14
aI10
aI2
aI0
aI15
aI19
aI2
aI1
aI0
aI14
aI14
aI9
aI0
aI0
aI6
aI13
aI13
aI3
aI2
aI14
aI17
aI4
aI2
aI0
aI2
aI9
aI22
aI4
aI0
aI0
aI1
aI33
aI3
aI0
aI11
aI18
aI4
aI3
aI1
aI23
aI3
aI11
aa(lp286
S'27008'
p287
aI8
aI12
aI6
aI0
aI0
aI9
aI13
aI3
aI1
aI0
aI8
aI15
aI3
aI0
aI0
aI3
aI8
aI7
aI6
aI2
aI3
aI17
aI3
aI3
aI0
aI0
aI6
aI18
aI1
aI1
aI0
aI1
aI25
aI0
aI0
aI8
aI14
aI2
aI1
aI1
aI8
aI11
aI7
aa(lp288
S'27015'
p289
aI6
aI6
aI0
aI1
aI0
aI6
aI4
aI3
aI0
aI0
aI1
aI2
aI6
aI3
aI1
aI1
aI2
aI5
aI2
aI3
aI2
aI6
aI3
aI1
aI1
aI0
aI0
aI8
aI4
aI1
aI0
aI0
aI13
aI0
aI0
aI3
aI5
aI2
aI3
aI0
aI0
aI11
aI2
aa(lp290
S'27022'
p291
aI13
aI33
aI18
aI13
aI2
aI9
aI29
aI29
aI9
aI3
aI15
aI18
aI20
aI15
aI11
aI3
aI14
aI33
aI18
aI11
aI8
aI24
aI30
aI11
aI6
aI4
aI11
aI52
aI10
aI2
aI1
aI3
aI55
aI12
aI8
aI10
aI24
aI23
aI16
aI6
aI34
aI26
aI17
aa(lp292
S'27023'
p293
aI15
aI31
aI7
aI4
aI3
aI34
aI19
aI3
aI1
aI3
aI15
aI28
aI11
aI5
aI1
aI10
aI16
aI18
aI6
aI8
aI16
aI21
aI13
aI8
aI2
aI1
aI11
aI25
aI20
aI3
aI1
aI1
aI52
aI4
aI2
aI9
aI29
aI12
aI7
aI3
aI24
aI19
aI17
aa(lp294
S'27026'
p295
aI13
aI16
aI10
aI2
aI1
aI5
aI17
aI12
aI7
aI0
aI9
aI14
aI14
aI4
aI1
aI2
aI6
aI18
aI13
aI2
aI4
aI17
aI15
aI4
aI1
aI1
aI5
aI22
aI11
aI3
aI0
aI1
aI22
aI15
aI3
aI7
aI18
aI8
aI7
aI2
aI30
aI5
aI7
aa(lp296
S'27027'
p297
aI13
aI11
aI3
aI0
aI0
aI20
aI7
aI0
aI0
aI0
aI12
aI9
aI5
aI1
aI0
aI8
aI10
aI6
aI3
aI0
aI14
aI10
aI2
aI1
aI0
aI0
aI1
aI8
aI10
aI8
aI0
aI0
aI22
aI5
aI0
aI14
aI9
aI2
aI1
aI1
aI4
aI18
aI5
aa(lp298
S'27034'
p299
aI9
aI14
aI7
aI2
aI1
aI7
aI12
aI11
aI2
aI1
aI2
aI3
aI6
aI9
aI13
aI0
aI7
aI7
aI10
aI9
aI2
aI12
aI11
aI3
aI4
aI0
aI3
aI24
aI4
aI1
aI0
aI0
aI31
aI1
aI0
aI5
aI11
aI9
aI4
aI4
aI21
aI2
aI10
aa(lp300
S'27035'
p301
aI19
aI11
aI0
aI2
aI0
aI29
aI2
aI0
aI0
aI1
aI10
aI13
aI7
aI1
aI1
aI11
aI7
aI9
aI3
aI2
aI20
aI7
aI2
aI0
aI3
aI0
aI3
aI22
aI6
aI1
aI0
aI1
aI30
aI1
aI0
aI19
aI10
aI1
aI1
aI1
aI5
aI24
aI3
aa(lp302
S'27040'
p303
aI4
aI4
aI1
aI1
aI0
aI6
aI3
aI0
aI0
aI1
aI2
aI4
aI2
aI2
aI0
aI1
aI4
aI2
aI3
aI0
aI5
aI3
aI0
aI1
aI0
aI0
aI4
aI5
aI1
aI0
aI0
aI0
aI9
aI1
aI0
aI4
aI3
aI2
aI1
aI0
aI5
aI1
aI3
aa(lp304
S'27042'
p305
aI5
aI6
aI7
aI10
aI4
aI4
aI12
aI7
aI5
aI4
aI4
aI5
aI9
aI9
aI5
aI1
aI2
aI7
aI11
aI11
aI2
aI7
aI7
aI12
aI4
aI0
aI6
aI15
aI5
aI6
aI0
aI2
aI17
aI6
aI7
aI2
aI7
aI9
aI8
aI5
aI0
aI29
aI3
aa(lp306
S'27051'
p307
aI14
aI11
aI9
aI3
aI0
aI21
aI8
aI6
aI1
aI1
aI16
aI13
aI6
aI2
aI0
aI3
aI12
aI11
aI8
aI3
aI16
aI15
aI5
aI1
aI0
aI1
aI10
aI23
aI2
aI1
aI0
aI0
aI36
aI1
aI0
aI18
aI12
aI6
aI1
aI0
aI30
aI0
aI7
aa(lp308
S'27461'
p309
aI11
aI5
aI1
aI0
aI0
aI15
aI0
aI2
aI0
aI0
aI7
aI5
aI4
aI0
aI1
aI1
aI8
aI3
aI4
aI1
aI8
aI6
aI3
aI0
aI0
aI0
aI3
aI12
aI1
aI1
aI0
aI0
aI15
aI1
aI0
aI14
aI2
aI1
aI0
aI0
aI15
aI0
aI2
aa(lp310
S'27611'
p311
aI14
aI23
aI10
aI8
aI1
aI18
aI18
aI14
aI5
aI1
aI9
aI21
aI15
aI11
aI0
aI4
aI14
aI29
aI7
aI2
aI12
aI24
aI11
aI7
aI2
aI4
aI18
aI32
aI1
aI1
aI1
aI5
aI49
aI1
aI0
aI11
aI25
aI11
aI8
aI1
aI42
aI4
aI10
aa(lp312
S'27633'
p313
aI3
aI3
aI5
aI0
aI1
aI3
aI6
aI3
aI0
aI0
aI2
aI3
aI5
aI2
aI0
aI4
aI2
aI2
aI3
aI1
aI4
aI4
aI4
aI0
aI0
aI0
aI0
aI11
aI1
aI0
aI0
aI0
aI11
aI1
aI0
aI2
aI2
aI5
aI2
aI1
aI3
aI6
aI3
aa(lp314
S'28001'
p315
aI5
aI17
aI11
aI12
aI2
aI11
aI18
aI12
aI5
aI1
aI2
aI10
aI18
aI15
aI2
aI6
aI16
aI14
aI8
aI3
aI6
aI20
aI10
aI8
aI3
aI2
aI18
aI24
aI3
aI0
aI1
aI3
aI39
aI2
aI1
aI7
aI19
aI9
aI9
aI3
aI15
aI19
aI13
aa(lp316
S'28020'
p317
aI4
aI6
aI3
aI6
aI2
aI5
aI4
aI6
aI4
aI2
aI2
aI7
aI5
aI4
aI3
aI2
aI6
aI5
aI4
aI4
aI5
aI6
aI6
aI2
aI2
aI0
aI2
aI9
aI7
aI3
aI0
aI0
aI19
aI2
aI0
aI5
aI3
aI5
aI3
aI5
aI15
aI1
aI5
aa(lp318
S'28025'
p319
aI4
aI11
aI3
aI7
aI4
aI6
aI8
aI5
aI9
aI1
aI3
aI8
aI4
aI11
aI3
aI3
aI8
aI7
aI6
aI5
aI5
aI9
aI5
aI5
aI5
aI0
aI0
aI17
aI10
aI2
aI0
aI1
aI24
aI4
aI0
aI2
aI10
aI7
aI4
aI6
aI19
aI5
aI5
aa(lp320
S'28121'
p321
aI5
aI4
aI2
aI0
aI0
aI8
aI2
aI1
aI0
aI0
aI2
aI3
aI3
aI3
aI0
aI6
aI4
aI1
aI0
aI0
aI3
aI4
aI4
aI0
aI0
aI0
aI3
aI2
aI5
aI1
aI1
aI0
aI7
aI3
aI0
aI5
aI5
aI1
aI0
aI0
aI2
aI7
aI2
aa(lp322
S'28122'
p323
aI0
aI0
aI0
aI0
aI0
aI0
aI0
aI0
aI0
aI0
aI0
aI0
aI0
aI0
aI0
aI0
aI0
aI0
aI0
aI0
aI0
aI0
aI0
aI0
aI0
aI0
aI0
aI0
aI0
aI0
aI0
aI0
aI0
aI0
aI0
aI0
aI0
aI0
aI0
aI0
aI0
aI0
aI0
aa(lp324
S'28123'
p325
aI0
aI0
aI0
aI0
aI0
aI0
aI0
aI0
aI0
aI0
aI0
aI0
aI0
aI0
aI0
aI0
aI0
aI0
aI0
aI0
aI0
aI0
aI0
aI0
aI0
aI0
aI0
aI0
aI0
aI0
aI0
aI0
aI0
aI0
aI0
aI0
aI0
aI0
aI0
aI0
aI0
aI0
aI0
aa(lp326
S'28124'
p327
aI0
aI0
aI0
aI0
aI0
aI0
aI0
aI0
aI0
aI0
aI0
aI0
aI0
aI0
aI0
aI0
aI0
aI0
aI0
aI0
aI0
aI0
aI0
aI0
aI0
aI0
aI0
aI0
aI0
aI0
aI0
aI0
aI0
aI0
aI0
aI0
aI0
aI0
aI0
aI0
aI0
aI0
aI0
aa(lp328
S'28125'
p329
aI2
aI5
aI0
aI0
aI0
aI5
aI1
aI1
aI0
aI0
aI0
aI3
aI2
aI1
aI1
aI3
aI2
aI2
aI0
aI0
aI1
aI4
aI2
aI0
aI0
aI0
aI0
aI0
aI3
aI4
aI0
aI0
aI3
aI3
aI1
aI2
aI2
aI2
aI1
aI0
aI1
aI5
aI1
aa(lp330
S'28140'
p331
aI17
aI5
aI0
aI0
aI0
aI17
aI5
aI0
aI0
aI0
aI13
aI9
aI0
aI0
aI0
aI13
aI6
aI3
aI0
aI0
aI14
aI5
aI2
aI0
aI0
aI0
aI1
aI13
aI7
aI0
aI0
aI0
aI20
aI1
aI0
aI13
aI8
aI0
aI0
aI0
aI13
aI2
aI6
aa(lp332
S'28150'
p333
aI3
aI6
aI11
aI5
aI1
aI5
aI4
aI8
aI7
aI2
aI1
aI3
aI8
aI13
aI1
aI0
aI3
aI9
aI10
aI4
aI2
aI5
aI9
aI8
aI2
aI0
aI4
aI9
aI8
aI5
aI1
aI0
aI18
aI6
aI1
aI2
aI8
aI9
aI4
aI3
aI5
aI8
aI13
aa(lp334
S'28160'
p335
aI11
aI6
aI0
aI0
aI0
aI7
aI9
aI1
aI0
aI0
aI6
aI5
aI4
aI3
aI0
aI6
aI7
aI5
aI0
aI0
aI8
aI6
aI3
aI1
aI0
aI0
aI0
aI5
aI8
aI5
aI0
aI0
aI14
aI4
aI0
aI8
aI8
aI2
aI0
aI0
aI3
aI6
aI9
aa(lp336
S'28221'
p337
aI6
aI4
aI4
aI1
aI0
aI8
aI4
aI2
aI0
aI1
aI5
aI5
aI3
aI1
aI1
aI2
aI7
aI2
aI3
aI1
aI6
aI6
aI0
aI0
aI3
aI0
aI2
aI12
aI1
aI0
aI0
aI0
aI15
aI0
aI0
aI6
aI6
aI0
aI3
aI0
aI3
aI8
aI4
aa(lp338
S'30010'
p339
aI10
aI8
aI5
aI1
aI0
aI17
aI4
aI2
aI1
aI0
aI4
aI8
aI9
aI3
aI0
aI2
aI3
aI12
aI6
aI1
aI7
aI12
aI2
aI2
aI1
aI0
aI2
aI16
aI5
aI1
aI0
aI1
aI22
aI1
aI0
aI12
aI8
aI3
aI1
aI0
aI2
aI15
aI7
aa(lp340
S'30020'
p341
aI2
aI11
aI8
aI8
aI2
aI10
aI9
aI4
aI7
aI1
aI1
aI7
aI10
aI7
aI6
aI1
aI8
aI9
aI5
aI7
aI0
aI7
aI10
aI9
aI5
aI0
aI15
aI14
aI2
aI0
aI1
aI1
aI26
aI3
aI0
aI1
aI10
aI8
aI9
aI3
aI11
aI7
aI13
aa(lp342
S'30100'
p343
aI4
aI4
aI7
aI2
aI0
aI10
aI3
aI3
aI1
aI0
aI3
aI5
aI9
aI0
aI0
aI3
aI3
aI7
aI3
aI1
aI5
aI6
aI3
aI3
aI0
aI1
aI4
aI6
aI4
aI2
aI0
aI2
aI14
aI1
aI0
aI7
aI7
aI3
aI0
aI0
aI2
aI10
aI5
aa(lp344
S'30110'
p345
aI7
aI2
aI0
aI0
aI0
aI7
aI2
aI0
aI0
aI0
aI2
aI3
aI4
aI0
aI0
aI3
aI1
aI5
aI0
aI0
aI4
aI2
aI3
aI0
aI0
aI0
aI0
aI6
aI2
aI1
aI0
aI0
aI9
aI0
aI0
aI5
aI4
aI0
aI0
aI0
aI0
aI5
aI4
aa(lp346
S'30120'
p347
aI12
aI13
aI1
aI0
aI1
aI11
aI10
aI4
aI2
aI0
aI7
aI12
aI6
aI2
aI0
aI7
aI8
aI7
aI1
aI3
aI13
aI8
aI5
aI1
aI0
aI0
aI3
aI23
aI0
aI1
aI1
aI1
aI23
aI2
aI0
aI14
aI10
aI1
aI1
aI1
aI19
aI0
aI8
aa(lp348
S'30130'
p349
aI5
aI6
aI1
aI1
aI1
aI6
aI4
aI1
aI3
aI0
aI6
aI3
aI4
aI1
aI0
aI4
aI2
aI5
aI2
aI1
aI4
aI2
aI6
aI2
aI0
aI0
aI0
aI11
aI3
aI0
aI0
aI0
aI14
aI0
aI0
aI5
aI6
aI1
aI2
aI0
aI8
aI2
aI4
aa(lp350
S'30140'
p351
aI6
aI7
aI3
aI0
aI0
aI2
aI4
aI4
aI5
aI1
aI0
aI7
aI7
aI2
aI0
aI0
aI1
aI8
aI4
aI2
aI1
aI8
aI3
aI2
aI1
aI0
aI8
aI5
aI3
aI0
aI0
aI0
aI13
aI2
aI1
aI3
aI6
aI5
aI2
aI0
aI2
aI4
aI10
aa(lp352
S'30150'
p353
aI4
aI7
aI1
aI3
aI1
aI4
aI5
aI3
aI3
aI1
aI2
aI4
aI5
aI2
aI3
aI3
aI7
aI4
aI1
aI1
aI4
aI4
aI1
aI3
aI4
aI1
aI3
aI8
aI3
aI1
aI1
aI1
aI14
aI0
aI0
aI5
aI1
aI3
aI2
aI5
aI6
aI5
aI5
aa(lp354
S'30160'
p355
aI5
aI6
aI2
aI2
aI0
aI6
aI4
aI3
aI1
aI1
aI5
aI4
aI4
aI2
aI0
aI5
aI8
aI2
aI0
aI0
aI5
aI7
aI3
aI0
aI0
aI0
aI5
aI10
aI0
aI0
aI0
aI0
aI15
aI0
aI0
aI7
aI5
aI1
aI2
aI0
aI12
aI0
aI2
aa(lp356
S'31001'
p357
aI22
aI37
aI15
aI3
aI1
aI16
aI35
aI21
aI4
aI2
aI18
aI32
aI18
aI8
aI1
aI16
aI22
aI25
aI10
aI2
aI17
aI30
aI24
aI4
aI2
aI2
aI14
aI53
aI7
aI1
aI0
aI3
aI71
aI1
aI1
aI21
aI35
aI17
aI3
aI0
aI52
aI3
aI22
aa(lp358
S'31003'
p359
aI4
aI8
aI5
aI2
aI0
aI1
aI11
aI6
aI1
aI0
aI3
aI10
aI4
aI1
aI1
aI6
aI6
aI3
aI4
aI0
aI1
aI13
aI3
aI2
aI0
aI0
aI5
aI10
aI3
aI1
aI0
aI0
aI12
aI3
aI4
aI3
aI9
aI2
aI4
aI1
aI2
aI3
aI14
aa(lp360
S'31013'
p361
aI20
aI17
aI2
aI4
aI2
aI34
aI5
aI2
aI1
aI3
aI12
aI17
aI9
aI6
aI1
aI6
aI14
aI13
aI10
aI2
aI13
aI17
aI10
aI4
aI1
aI1
aI10
aI28
aI6
aI0
aI0
aI3
aI38
aI4
aI0
aI23
aI13
aI2
aI3
aI4
aI9
aI29
aI7
aa(lp362
S'31015'
p363
aI7
aI4
aI3
aI0
aI0
aI8
aI3
aI3
aI0
aI0
aI1
aI0
aI7
aI2
aI4
aI2
aI3
aI5
aI0
aI4
aI2
aI3
aI7
aI1
aI1
aI0
aI1
aI4
aI6
aI3
aI0
aI0
aI13
aI1
aI0
aI4
aI3
aI5
aI1
aI1
aI4
aI5
aI5
aa(lp364
S'31300'
p365
aI2
aI5
aI5
aI0
aI0
aI4
aI2
aI3
aI3
aI0
aI2
aI5
aI3
aI2
aI0
aI3
aI4
aI3
aI2
aI0
aI2
aI6
aI2
aI1
aI1
aI0
aI1
aI8
aI3
aI0
aI0
aI0
aI12
aI0
aI0
aI3
aI3
aI5
aI1
aI0
aI2
aI4
aI6
aa(lp366
S'31342'
p367
aI2
aI2
aI3
aI0
aI0
aI5
aI1
aI0
aI0
aI1
aI3
aI2
aI1
aI1
aI0
aI1
aI1
aI3
aI2
aI0
aI4
aI0
aI2
aI0
aI0
aI0
aI3
aI4
aI0
aI0
aI0
aI0
aI7
aI0
aI0
aI2
aI4
aI1
aI0
aI0
aI0
aI4
aI3
aa(lp368
S'31351'
p369
aI16
aI5
aI2
aI1
aI0
aI16
aI4
aI2
aI2
aI0
aI6
aI8
aI9
aI1
aI0
aI5
aI10
aI7
aI2
aI0
aI15
aI5
aI4
aI0
aI0
aI1
aI1
aI13
aI8
aI1
aI0
aI1
aI22
aI1
aI0
aI18
aI3
aI1
aI2
aI0
aI16
aI1
aI6
aa(lp370
S'31373'
p371
aI3
aI11
aI9
aI2
aI0
aI14
aI6
aI4
aI1
aI0
aI0
aI6
aI12
aI6
aI1
aI3
aI5
aI10
aI5
aI2
aI5
aI11
aI5
aI2
aI2
aI1
aI5
aI16
aI3
aI0
aI0
aI0
aI25
aI0
aI0
aI9
aI8
aI7
aI1
aI0
aI6
aI12
aI7
aa(lp372
S'31400'
p373
aI24
aI9
aI1
aI1
aI0
aI26
aI4
aI4
aI1
aI0
aI13
aI16
aI6
aI0
aI0
aI19
aI11
aI4
aI0
aI0
aI17
aI13
aI2
aI3
aI0
aI0
aI2
aI12
aI16
aI5
aI0
aI0
aI28
aI6
aI1
aI17
aI14
aI3
aI1
aI0
aI29
aI2
aI4
aa(lp374
S'31405'
p375
aI11
aI6
aI4
aI0
aI0
aI8
aI9
aI4
aI0
aI0
aI7
aI8
aI6
aI0
aI0
aI8
aI2
aI4
aI4
aI2
aI8
aI7
aI4
aI2
aI0
aI0
aI0
aI9
aI8
aI4
aI1
aI0
aI18
aI1
aI0
aI8
aI8
aI4
aI1
aI0
aI14
aI1
aI6
aa(lp376
S'31501'
p377
aI6
aI15
aI10
aI1
aI0
aI11
aI13
aI7
aI1
aI0
aI3
aI13
aI11
aI5
aI0
aI2
aI6
aI11
aI11
aI2
aI3
aI14
aI10
aI4
aI1
aI1
aI4
aI12
aI11
aI4
aI0
aI1
aI18
aI10
aI3
aI7
aI12
aI8
aI4
aI1
aI2
aI24
aI6
aa(lp378
S'31502'
p379
aI6
aI4
aI1
aI0
aI1
aI8
aI3
aI0
aI0
aI1
aI5
aI4
aI1
aI1
aI1
aI2
aI5
aI1
aI3
aI1
aI5
aI3
aI3
aI0
aI1
aI0
aI0
aI7
aI5
aI0
aI0
aI0
aI12
aI0
aI0
aI5
aI5
aI1
aI0
aI1
aI6
aI5
aI1
aa(lp380
S'31520'
p381
aI3
aI11
aI7
aI5
aI0
aI8
aI9
aI6
aI2
aI1
aI3
aI5
aI9
aI7
aI2
aI3
aI4
aI10
aI4
aI5
aI4
aI14
aI3
aI4
aI1
aI0
aI5
aI17
aI3
aI1
aI0
aI0
aI20
aI3
aI2
aI2
aI12
aI6
aI5
aI1
aI8
aI11
aI7
aa(lp382
S'31522'
p383
aI6
aI4
aI0
aI1
aI0
aI8
aI0
aI1
aI1
aI0
aI7
aI3
aI0
aI1
aI0
aI5
aI5
aI0
aI1
aI0
aI7
aI2
aI1
aI1
aI0
aI1
aI1
aI3
aI5
aI1
aI0
aI0
aI10
aI0
aI1
aI7
aI3
aI1
aI0
aI0
aI6
aI2
aI3
aa(lp384
S'31533'
p385
aI4
aI5
aI2
aI0
aI0
aI5
aI5
aI1
aI0
aI0
aI3
aI5
aI1
aI2
aI0
aI2
aI3
aI2
aI2
aI2
aI3
aI6
aI2
aI0
aI0
aI0
aI1
aI6
aI4
aI0
aI0
aI0
aI10
aI1
aI0
aI2
aI6
aI1
aI1
aI0
aI1
aI3
aI6
aa(lp386
S'31534'
p387
aI0
aI4
aI4
aI1
aI0
aI0
aI6
aI2
aI1
aI0
aI0
aI2
aI6
aI1
aI0
aI0
aI0
aI3
aI4
aI2
aI0
aI4
aI4
aI1
aI0
aI0
aI3
aI5
aI1
aI0
aI0
aI0
aI9
aI0
aI0
aI0
aI1
aI8
aI0
aI0
aI0
aI8
aI1
aa(lp388
S'31540'
p389
aI3
aI1
aI4
aI0
aI0
aI0
aI3
aI4
aI1
aI0
aI1
aI3
aI3
aI1
aI0
aI1
aI1
aI4
aI1
aI1
aI1
aI1
aI5
aI1
aI0
aI0
aI0
aI4
aI4
aI0
aI0
aI0
aI7
aI0
aI1
aI2
aI2
aI3
aI1
aI0
aI0
aI3
aI5
aa(lp390
S'31605'
p391
aI5
aI15
aI8
aI5
aI2
aI5
aI15
aI7
aI7
aI1
aI6
aI12
aI8
aI5
aI4
aI4
aI10
aI13
aI5
aI2
aI5
aI12
aI9
aI5
aI3
aI0
aI5
aI21
aI5
aI2
aI0
aI2
aI23
aI4
aI4
aI6
aI10
aI9
aI8
aI1
aI3
aI15
aI14
aa(lp392
S'31606'
p393
aI11
aI6
aI3
aI0
aI1
aI17
aI2
aI0
aI1
aI1
aI7
aI5
aI6
aI0
aI2
aI4
aI10
aI6
aI0
aI1
aI10
aI7
aI2
aI1
aI1
aI0
aI2
aI7
aI7
aI5
aI0
aI3
aI17
aI1
aI0
aI10
aI6
aI2
aI2
aI1
aI18
aI1
aI2
aa(lp394
S'31631'
p395
aI5
aI4
aI2
aI1
aI0
aI6
aI2
aI2
aI1
aI1
aI6
aI3
aI0
aI2
aI1
aI5
aI4
aI2
aI1
aI0
aI7
aI2
aI2
aI0
aI1
aI0
aI2
aI10
aI0
aI0
aI0
aI0
aI12
aI0
aI0
aI8
aI2
aI1
aI0
aI0
aI8
aI3
aI1
aa(lp396
S'31700'
p397
aI1
aI7
aI0
aI1
aI0
aI1
aI5
aI3
aI0
aI0
aI0
aI6
aI3
aI0
aI0
aI0
aI5
aI0
aI3
aI1
aI3
aI5
aI0
aI0
aI1
aI0
aI1
aI6
aI2
aI0
aI0
aI1
aI6
aI1
aI0
aI2
aI4
aI2
aI1
aI0
aI1
aI7
aI1
aa(lp398
S'33236'
p399
aI5
aI0
aI0
aI0
aI0
aI3
aI1
aI1
aI0
aI0
aI2
aI3
aI0
aI0
aI0
aI0
aI2
aI1
aI2
aI0
aI2
aI3
aI0
aI0
aI0
aI0
aI0
aI4
aI1
aI0
aI0
aI0
aI5
aI0
aI0
aI2
aI3
aI0
aI0
aI0
aI3
aI1
aI1
aa(lp400
S'33253'
p401
aI12
aI3
aI0
aI0
aI0
aI14
aI1
aI0
aI0
aI0
aI12
aI2
aI1
aI0
aI0
aI9
aI3
aI2
aI1
aI0
aI11
aI4
aI0
aI0
aI0
aI0
aI2
aI12
aI1
aI0
aI0
aI0
aI15
aI0
aI0
aI13
aI2
aI0
aI0
aI0
aI8
aI1
aI6
aa(lp402
S'33255'
p403
aI10
aI8
aI5
aI2
aI1
aI14
aI8
aI3
aI1
aI0
aI6
aI5
aI6
aI6
aI3
aI9
aI9
aI6
aI1
aI1
aI12
aI9
aI3
aI2
aI0
aI1
aI3
aI18
aI2
aI2
aI0
aI1
aI25
aI0
aI0
aI8
aI8
aI8
aI1
aI1
aI12
aI6
aI8
aa(lp404
S'33257'
p405
aI2
aI3
aI0
aI0
aI0
aI4
aI1
aI0
aI0
aI0
aI1
aI2
aI1
aI1
aI0
aI2
aI2
aI1
aI0
aI0
aI3
aI2
aI0
aI0
aI0
aI0
aI0
aI5
aI0
aI0
aI0
aI1
aI4
aI0
aI0
aI2
aI3
aI0
aI0
aI0
aI4
aI0
aI1
aa(lp406
S'33323'
p407
aI1
aI6
aI3
aI2
aI0
aI4
aI6
aI0
aI1
aI1
aI2
aI5
aI4
aI1
aI0
aI2
aI2
aI5
aI3
aI0
aI3
aI5
aI1
aI3
aI0
aI1
aI0
aI9
aI2
aI0
aI0
aI2
aI10
aI0
aI0
aI3
aI2
aI6
aI1
aI0
aI9
aI1
aI2
aa(lp408
S'33470'
p409
aI2
aI0
aI0
aI0
aI0
aI2
aI0
aI0
aI0
aI0
aI1
aI0
aI1
aI0
aI0
aI1
aI0
aI1
aI0
aI0
aI1
aI0
aI0
aI0
aI0
aI0
aI0
aI1
aI0
aI0
aI0
aI0
aI2
aI0
aI0
aI2
aI0
aI0
aI0
aI0
aI1
aI1
aI0
aa(lp410
S'33471'
p411
aI0
aI0
aI0
aI0
aI0
aI0
aI0
aI0
aI0
aI0
aI0
aI0
aI0
aI0
aI0
aI0
aI0
aI0
aI0
aI0
aI0
aI0
aI0
aI0
aI0
aI0
aI0
aI0
aI0
aI0
aI0
aI0
aI0
aI0
aI0
aI0
aI0
aI0
aI0
aI0
aI0
aI0
aI0
aa(lp412
S'33472'
p413
aI25
aI12
aI2
aI1
aI0
aI27
aI10
aI1
aI1
aI1
aI8
aI17
aI13
aI2
aI0
aI8
aI15
aI15
aI2
aI0
aI20
aI17
aI2
aI1
aI0
aI2
aI3
aI21
aI11
aI3
aI1
aI0
aI34
aI5
aI0
aI20
aI14
aI2
aI1
aI2
aI7
aI29
aI4
aa(lp414
S'33480'
p415
aI0
aI0
aI0
aI0
aI0
aI0
aI0
aI0
aI0
aI0
aI0
aI0
aI0
aI0
aI0
aI0
aI0
aI0
aI0
aI0
aI0
aI0
aI0
aI0
aI0
aI0
aI0
aI0
aI0
aI0
aI0
aI0
aI0
aI0
aI0
aI0
aI0
aI0
aI0
aI0
aI0
aI0
aI0
aa(lp416
S'33481'
p417
aI0
aI0
aI0
aI0
aI0
aI0
aI0
aI0
aI0
aI0
aI0
aI0
aI0
aI0
aI0
aI0
aI0
aI0
aI0
aI0
aI0
aI0
aI0
aI0
aI0
aI0
aI0
aI0
aI0
aI0
aI0
aI0
aI0
aI0
aI0
aI0
aI0
aI0
aI0
aI0
aI0
aI0
aI0
aa(lp418
S'33482'
p419
aI4
aI0
aI0
aI0
aI1
aI4
aI0
aI0
aI0
aI1
aI4
aI0
aI0
aI0
aI1
aI3
aI0
aI1
aI0
aI1
aI4
aI0
aI0
aI0
aI1
aI1
aI0
aI0
aI1
aI3
aI1
aI0
aI4
aI0
aI0
aI4
aI0
aI0
aI0
aI1
aI0
aI3
aI2
aa(lp420
S'34020'
p421
aI3
aI8
aI8
aI3
aI2
aI4
aI7
aI5
aI7
aI1
aI3
aI4
aI4
aI7
aI6
aI1
aI1
aI13
aI5
aI4
aI3
aI8
aI6
aI4
aI3
aI0
aI5
aI13
aI2
aI4
aI0
aI3
aI15
aI3
aI3
aI2
aI5
aI9
aI4
aI4
aI4
aI17
aI3
aa(lp422
S'34021'
p423
aI0
aI0
aI0
aI0
aI0
aI0
aI0
aI0
aI0
aI0
aI0
aI0
aI0
aI0
aI0
aI0
aI0
aI0
aI0
aI0
aI0
aI0
aI0
aI0
aI0
aI0
aI0
aI0
aI0
aI0
aI0
aI0
aI0
aI0
aI0
aI0
aI0
aI0
aI0
aI0
aI0
aI0
aI0
aa(lp424
S'34029'
p425
aI0
aI1
aI0
aI0
aI0
aI1
aI0
aI0
aI0
aI0
aI0
aI0
aI1
aI0
aI0
aI0
aI0
aI1
aI0
aI0
aI0
aI0
aI1
aI0
aI0
aI0
aI0
aI0
aI1
aI0
aI0
aI0
aI1
aI0
aI0
aI1
aI0
aI0
aI0
aI0
aI1
aI0
aI0
aa(lp426
S'34031'
p427
aI6
aI4
aI0
aI0
aI0
aI6
aI2
aI2
aI0
aI0
aI5
aI5
aI0
aI0
aI0
aI6
aI3
aI1
aI0
aI0
aI5
aI4
aI1
aI0
aI0
aI0
aI1
aI2
aI1
aI6
aI1
aI1
aI8
aI0
aI0
aI7
aI2
aI1
aI0
aI0
aI1
aI4
aI5
aa(lp428
S'34120'
p429
aI0
aI1
aI0
aI0
aI0
aI0
aI0
aI1
aI0
aI0
aI0
aI0
aI0
aI1
aI0
aI0
aI0
aI0
aI1
aI0
aI0
aI0
aI0
aI1
aI0
aI1
aI0
aI0
aI0
aI0
aI0
aI0
aI1
aI0
aI0
aI0
aI1
aI0
aI0
aI0
aI0
aI1
aI0
aa(lp430
S'34126'
p431
aI2
aI0
aI0
aI0
aI0
aI2
aI0
aI0
aI0
aI0
aI1
aI1
aI0
aI0
aI0
aI1
aI0
aI1
aI0
aI0
aI1
aI1
aI0
aI0
aI0
aI0
aI0
aI2
aI0
aI0
aI0
aI0
aI2
aI0
aI0
aI2
aI0
aI0
aI0
aI0
aI1
aI0
aI1
aa(lp432
S'34127'
p433
aI11
aI6
aI2
aI0
aI0
aI13
aI6
aI0
aI0
aI0
aI6
aI8
aI4
aI0
aI0
aI3
aI8
aI5
aI2
aI0
aI4
aI9
aI5
aI1
aI0
aI0
aI3
aI12
aI4
aI0
aI0
aI0
aI17
aI1
aI0
aI9
aI9
aI0
aI0
aI1
aI1
aI14
aI4
aa(lp434
S'34129'
p435
aI0
aI0
aI0
aI0
aI0
aI0
aI0
aI0
aI0
aI0
aI0
aI0
aI0
aI0
aI0
aI0
aI0
aI0
aI0
aI0
aI0
aI0
aI0
aI0
aI0
aI0
aI0
aI0
aI0
aI0
aI0
aI0
aI0
aI0
aI0
aI0
aI0
aI0
aI0
aI0
aI0
aI0
aI0
aa(lp436
S'34210'
p437
aI1
aI2
aI5
aI4
aI0
aI0
aI5
aI2
aI4
aI1
aI1
aI3
aI7
aI1
aI0
aI1
aI3
aI5
aI3
aI0
aI1
aI2
aI4
aI5
aI0
aI0
aI1
aI7
aI4
aI0
aI0
aI0
aI12
aI0
aI0
aI0
aI6
aI4
aI2
aI0
aI5
aI2
aI5
aa(lp438
S'34220'
p439
aI4
aI5
aI1
aI1
aI0
aI5
aI4
aI2
aI0
aI0
aI2
aI3
aI2
aI4
aI0
aI2
aI2
aI4
aI2
aI1
aI1
aI5
aI4
aI1
aI0
aI1
aI1
aI7
aI2
aI0
aI0
aI0
aI10
aI1
aI0
aI5
aI2
aI2
aI2
aI0
aI1
aI10
aI0
aa(lp440
S'34229'
p441
aI3
aI4
aI2
aI0
aI0
aI3
aI2
aI3
aI1
aI0
aI0
aI4
aI4
aI0
aI1
aI2
aI3
aI3
aI1
aI0
aI2
aI1
aI4
aI1
aI1
aI0
aI1
aI5
aI3
aI0
aI0
aI0
aI8
aI1
aI0
aI2
aI4
aI1
aI2
aI0
aI4
aI4
aI1
aa(lp442
S'34302'
p443
aI10
aI9
aI4
aI0
aI0
aI11
aI9
aI3
aI0
aI0
aI12
aI5
aI5
aI0
aI0
aI8
aI6
aI8
aI0
aI0
aI15
aI6
aI2
aI0
aI0
aI0
aI8
aI13
aI2
aI0
aI0
aI0
aI23
aI0
aI0
aI14
aI5
aI4
aI0
aI0
aI5
aI9
aI8
aa(lp444
S'34311'
p445
aI16
aI9
aI2
aI1
aI0
aI13
aI11
aI4
aI0
aI0
aI12
aI10
aI4
aI1
aI0
aI9
aI8
aI9
aI1
aI1
aI16
aI10
aI1
aI1
aI0
aI1
aI3
aI21
aI3
aI0
aI0
aI0
aI27
aI1
aI0
aI18
aI6
aI4
aI0
aI0
aI13
aI4
aI10
aa(lp446
S'34315'
p447
aI2
aI0
aI1
aI0
aI0
aI3
aI0
aI0
aI0
aI0
aI1
aI1
aI1
aI0
aI0
aI1
aI1
aI1
aI0
aI0
aI3
aI0
aI0
aI0
aI0
aI0
aI2
aI1
aI0
aI0
aI0
aI0
aI3
aI0
aI0
aI3
aI0
aI0
aI0
aI0
aI0
aI3
aI0
aa(lp448
S'34318'
p449
aI4
aI3
aI0
aI0
aI0
aI4
aI3
aI0
aI0
aI0
aI3
aI2
aI2
aI0
aI0
aI3
aI3
aI0
aI0
aI1
aI4
aI2
aI1
aI0
aI0
aI0
aI1
aI6
aI0
aI0
aI0
aI1
aI6
aI0
aI0
aI4
aI2
aI0
aI1
aI0
aI1
aI5
aI1
aa(lp450
S'34319'
p451
aI0
aI0
aI0
aI0
aI0
aI0
aI0
aI0
aI0
aI0
aI0
aI0
aI0
aI0
aI0
aI0
aI0
aI0
aI0
aI0
aI0
aI0
aI0
aI0
aI0
aI0
aI0
aI0
aI0
aI0
aI0
aI0
aI0
aI0
aI0
aI0
aI0
aI0
aI0
aI0
aI0
aI0
aI0
aa(lp452
S'34330'
p453
aI0
aI0
aI0
aI0
aI0
aI0
aI0
aI0
aI0
aI0
aI0
aI0
aI0
aI0
aI0
aI0
aI0
aI0
aI0
aI0
aI0
aI0
aI0
aI0
aI0
aI0
aI0
aI0
aI0
aI0
aI0
aI0
aI0
aI0
aI0
aI0
aI0
aI0
aI0
aI0
aI0
aI0
aI0
aa(lp454
S'41000'
p455
aI17
aI16
aI14
aI3
aI0
aI22
aI18
aI6
aI4
aI0
aI5
aI15
aI17
aI12
aI1
aI3
aI13
aI17
aI15
aI2
aI13
aI23
aI7
aI6
aI1
aI0
aI5
aI24
aI12
aI9
aI0
aI0
aI46
aI4
aI0
aI16
aI19
aI9
aI5
aI1
aI21
aI16
aI13
aa(lp456
S'41010'
p457
aI1
aI7
aI1
aI2
aI0
aI6
aI4
aI1
aI0
aI0
aI3
aI4
aI3
aI1
aI0
aI2
aI2
aI4
aI2
aI1
aI7
aI2
aI2
aI0
aI0
aI0
aI1
aI8
aI2
aI0
aI0
aI1
aI10
aI0
aI0
aI4
aI5
aI0
aI2
aI0
aI10
aI0
aI1
aa(lp458
S'41012'
p459
aI15
aI7
aI3
aI1
aI1
aI18
aI6
aI0
aI3
aI0
aI12
aI8
aI4
aI1
aI1
aI5
aI7
aI9
aI6
aI0
aI12
aI11
aI1
aI3
aI0
aI0
aI5
aI12
aI8
aI1
aI0
aI1
aI22
aI3
aI1
aI14
aI8
aI2
aI2
aI1
aI6
aI15
aI6
aa(lp460
S'41015'
p461
aI7
aI6
aI2
aI0
aI0
aI4
aI6
aI2
aI3
aI0
aI2
aI8
aI2
aI2
aI1
aI1
aI2
aI6
aI4
aI2
aI4
aI1
aI4
aI4
aI2
aI0
aI0
aI11
aI3
aI1
aI0
aI1
aI11
aI1
aI1
aI5
aI3
aI3
aI3
aI1
aI14
aI0
aI1
aa(lp462
S'41020'
p463
aI9
aI3
aI0
aI0
aI0
aI7
aI5
aI0
aI0
aI0
aI3
aI5
aI4
aI0
aI0
aI0
aI3
aI4
aI4
aI1
aI3
aI6
aI1
aI2
aI0
aI0
aI0
aI6
aI6
aI0
aI0
aI0
aI11
aI1
aI0
aI4
aI8
aI0
aI0
aI0
aI7
aI1
aI4
aa(lp464
S'41030'
p465
aI6
aI3
aI1
aI1
aI0
aI4
aI6
aI1
aI0
aI0
aI0
aI1
aI6
aI1
aI3
aI1
aI2
aI0
aI4
aI4
aI1
aI0
aI5
aI3
aI2
aI0
aI0
aI2
aI1
aI8
aI0
aI0
aI6
aI3
aI1
aI2
aI4
aI3
aI2
aI0
aI9
aI0
aI2
aa(lp466
S'41031'
p467
aI2
aI3
aI2
aI1
aI0
aI8
aI0
aI0
aI0
aI0
aI3
aI3
aI2
aI0
aI0
aI3
aI3
aI1
aI1
aI0
aI3
aI5
aI0
aI0
aI0
aI0
aI0
aI5
aI2
aI1
aI0
aI0
aI7
aI0
aI1
aI3
aI3
aI2
aI0
aI0
aI0
aI8
aI0
aa(lp468
S'41035'
p469
aI7
aI9
aI3
aI0
aI0
aI5
aI12
aI1
aI1
aI0
aI6
aI6
aI5
aI2
aI0
aI1
aI6
aI9
aI3
aI0
aI7
aI8
aI4
aI0
aI0
aI0
aI1
aI7
aI8
aI3
aI0
aI1
aI17
aI0
aI0
aI6
aI11
aI0
aI2
aI0
aI12
aI0
aI7
aa(lp470
S'41045'
p471
aI0
aI7
aI4
aI1
aI0
aI1
aI4
aI5
aI1
aI1
aI0
aI3
aI6
aI3
aI0
aI1
aI6
aI3
aI1
aI0
aI0
aI8
aI3
aI0
aI1
aI1
aI1
aI6
aI4
aI0
aI0
aI0
aI10
aI1
aI0
aI0
aI6
aI5
aI1
aI0
aI5
aI0
aI6
aa(lp472
S'41051'
p473
aI9
aI8
aI0
aI0
aI1
aI12
aI5
aI0
aI0
aI1
aI7
aI9
aI1
aI0
aI1
aI4
aI8
aI4
aI2
aI0
aI11
aI6
aI0
aI0
aI1
aI0
aI1
aI13
aI4
aI0
aI0
aI0
aI18
aI0
aI0
aI11
aI7
aI0
aI0
aI0
aI16
aI0
aI2
aa(lp474
S'41102'
p475
aI18
aI8
aI1
aI0
aI1
aI15
aI11
aI1
aI0
aI1
aI12
aI8
aI5
aI1
aI2
aI8
aI13
aI5
aI1
aI1
aI13
aI11
aI2
aI0
aI1
aI0
aI4
aI20
aI3
aI1
aI0
aI0
aI26
aI2
aI0
aI12
aI13
aI2
aI1
aI0
aI19
aI6
aI3
aa(lp476
S'41112'
p477
aI9
aI8
aI3
aI0
aI1
aI16
aI2
aI2
aI0
aI1
aI4
aI8
aI7
aI2
aI0
aI3
aI8
aI8
aI1
aI0
aI8
aI10
aI2
aI0
aI1
aI0
aI3
aI17
aI1
aI0
aI0
aI1
aI20
aI0
aI0
aI12
aI6
aI2
aI0
aI1
aI5
aI11
aI5
aa(lp478
S'41202'
p479
aI4
aI5
aI4
aI0
aI0
aI2
aI7
aI4
aI0
aI0
aI1
aI5
aI2
aI3
aI2
aI1
aI6
aI6
aI0
aI0
aI1
aI8
aI4
aI0
aI0
aI0
aI2
aI7
aI4
aI0
aI0
aI0
aI12
aI1
aI0
aI3
aI5
aI4
aI1
aI0
aI2
aI6
aI4
aa(lp480
S'41203'
p481
aI28
aI11
aI0
aI0
aI0
aI24
aI13
aI2
aI0
aI0
aI14
aI6
aI13
aI5
aI1
aI7
aI13
aI13
aI4
aI1
aI21
aI16
aI1
aI0
aI0
aI0
aI5
aI25
aI9
aI0
aI0
aI0
aI34
aI5
aI0
aI22
aI10
aI0
aI4
aI2
aI31
aI1
aI5
aa(lp482
S'41263'
p483
aI3
aI1
aI0
aI0
aI0
aI3
aI1
aI0
aI0
aI0
aI2
aI0
aI1
aI0
aI1
aI1
aI0
aI2
aI1
aI0
aI2
aI0
aI2
aI0
aI0
aI0
aI0
aI0
aI3
aI1
aI0
aI0
aI4
aI0
aI0
aI2
aI0
aI0
aI1
aI1
aI0
aI4
aI0
aa(lp484
S'41271'
p485
aI4
aI1
aI0
aI0
aI1
aI4
aI0
aI1
aI0
aI1
aI1
aI3
aI1
aI0
aI1
aI0
aI3
aI2
aI0
aI1
aI0
aI3
aI0
aI2
aI1
aI0
aI0
aI0
aI3
aI3
aI0
aI0
aI4
aI2
aI0
aI1
aI3
aI1
aI0
aI1
aI2
aI4
aI0
aa(lp486
S'41280'
p487
aI0
aI0
aI0
aI0
aI0
aI0
aI0
aI0
aI0
aI0
aI0
aI0
aI0
aI0
aI0
aI0
aI0
aI0
aI0
aI0
aI0
aI0
aI0
aI0
aI0
aI0
aI0
aI0
aI0
aI0
aI0
aI0
aI0
aI0
aI0
aI0
aI0
aI0
aI0
aI0
aI0
aI0
aI0
aa(lp488
S'41312'
p489
aI29
aI27
aI6
aI2
aI0
aI35
aI25
aI3
aI0
aI1
aI12
aI25
aI15
aI9
aI3
aI8
aI20
aI16
aI13
aI7
aI28
aI30
aI3
aI2
aI1
aI0
aI4
aI37
aI22
aI1
aI1
aI2
aI56
aI4
aI1
aI25
aI28
aI9
aI2
aI0
aI16
aI27
aI19
aa(lp490
S'41342'
p491
aI2
aI0
aI0
aI0
aI0
aI2
aI0
aI0
aI0
aI0
aI2
aI0
aI0
aI0
aI0
aI2
aI0
aI0
aI0
aI0
aI2
aI0
aI0
aI0
aI0
aI0
aI0
aI1
aI0
aI1
aI0
aI0
aI2
aI0
aI0
aI2
aI0
aI0
aI0
aI0
aI1
aI1
aI0
aa(lp492
S'41344'
p493
aI0
aI3
aI0
aI0
aI0
aI0
aI3
aI0
aI0
aI0
aI0
aI3
aI0
aI0
aI0
aI0
aI1
aI1
aI0
aI0
aI0
aI2
aI0
aI0
aI0
aI0
aI0
aI2
aI0
aI0
aI0
aI0
aI2
aI0
aI0
aI0
aI2
aI0
aI0
aI0
aI2
aI0
aI0
aa(lp494
S'41401'
p495
aI9
aI5
aI2
aI1
aI0
aI9
aI5
aI3
aI0
aI0
aI4
aI7
aI3
aI2
aI1
aI6
aI7
aI3
aI1
aI0
aI9
aI6
aI1
aI1
aI0
aI0
aI1
aI11
aI4
aI1
aI0
aI1
aI13
aI3
aI0
aI10
aI4
aI3
aI0
aI0
aI11
aI1
aI5
aa(lp496
S'41402'
p497
aI3
aI2
aI1
aI0
aI0
aI4
aI2
aI0
aI0
aI0
aI2
aI0
aI3
aI0
aI1
aI1
aI2
aI3
aI0
aI0
aI3
aI3
aI0
aI0
aI0
aI0
aI0
aI5
aI1
aI0
aI0
aI0
aI6
aI0
aI0
aI4
aI1
aI0
aI1
aI0
aI2
aI2
aI2
aa(lp498
S'41409'
p499
aI9
aI1
aI0
aI0
aI0
aI8
aI2
aI0
aI0
aI0
aI3
aI7
aI0
aI0
aI0
aI4
aI3
aI1
aI2
aI0
aI6
aI1
aI2
aI0
aI0
aI0
aI0
aI8
aI1
aI1
aI0
aI1
aI6
aI3
aI0
aI7
aI2
aI0
aI0
aI1
aI8
aI0
aI2
aa(lp500
S'41422'
p501
aI3
aI3
aI0
aI1
aI0
aI2
aI4
aI0
aI1
aI0
aI1
aI4
aI1
aI1
aI0
aI1
aI4
aI1
aI1
aI0
aI2
aI3
aI1
aI1
aI0
aI0
aI0
aI5
aI2
aI0
aI0
aI0
aI6
aI1
aI0
aI1
aI5
aI0
aI1
aI0
aI1
aI3
aI3
aa(lp502
S'41501'
p503
aI16
aI22
aI4
aI3
aI2
aI11
aI23
aI8
aI5
aI0
aI4
aI8
aI6
aI15
aI14
aI7
aI11
aI21
aI5
aI3
aI8
aI17
aI11
aI8
aI3
aI2
aI4
aI17
aI18
aI6
aI1
aI4
aI30
aI7
aI5
aI9
aI20
aI13
aI4
aI1
aI39
aI3
aI5
aa(lp504
S'41502'
p505
aI13
aI7
aI2
aI1
aI0
aI14
aI7
aI1
aI0
aI1
aI9
aI6
aI2
aI6
aI0
aI4
aI8
aI8
aI3
aI0
aI11
aI6
aI3
aI3
aI0
aI1
aI1
aI5
aI14
aI2
aI0
aI0
aI20
aI3
aI0
aI13
aI7
aI1
aI2
aI0
aI18
aI1
aI4
aa(lp506
S'41511'
p507
aI23
aI6
aI3
aI1
aI1
aI11
aI16
aI3
aI3
aI1
aI21
aI10
aI0
aI3
aI0
aI9
aI11
aI9
aI4
aI1
aI16
aI13
aI4
aI0
aI0
aI2
aI1
aI18
aI11
aI1
aI0
aI2
aI28
aI3
aI0
aI20
aI9
aI1
aI1
aI2
aI28
aI1
aI4
aa(lp508
S'41560'
p509
aI35
aI2
aI0
aI1
aI2
aI32
aI4
aI1
aI1
aI2
aI22
aI13
aI2
aI0
aI3
aI22
aI14
aI2
aI0
aI2
aI31
aI5
aI0
aI0
aI4
aI0
aI2
aI10
aI24
aI4
aI0
aI2
aI31
aI5
aI1
aI34
aI2
aI1
aI1
aI2
aI38
aI1
aI1
aa(lp510
S'41603'
p511
aI2
aI9
aI8
aI8
aI3
aI10
aI9
aI7
aI3
aI1
aI7
aI3
aI11
aI6
aI3
aI4
aI7
aI13
aI3
aI3
aI7
aI8
aI11
aI3
aI1
aI4
aI4
aI17
aI5
aI0
aI1
aI1
aI27
aI0
aI1
aI3
aI10
aI9
aI4
aI3
aI6
aI14
aI10
aa(lp512
S'41612'
p513
aI10
aI1
aI0
aI0
aI0
aI10
aI1
aI0
aI0
aI0
aI6
aI3
aI1
aI1
aI0
aI3
aI6
aI2
aI0
aI0
aI6
aI3
aI2
aI0
aI0
aI0
aI0
aI3
aI5
aI3
aI1
aI0
aI9
aI1
aI0
aI7
aI3
aI1
aI0
aI0
aI8
aI0
aI3
aa(lp514
S'41616'
p515
aI7
aI12
aI4
aI0
aI0
aI8
aI9
aI3
aI3
aI0
aI7
aI9
aI6
aI1
aI0
aI4
aI9
aI7
aI1
aI1
aI4
aI12
aI6
aI1
aI0
aI2
aI6
aI13
aI2
aI0
aI0
aI3
aI18
aI2
aI0
aI8
aI10
aI5
aI0
aI0
aI5
aI13
aI5
aa(lp516
S'41617'
p517
aI4
aI9
aI4
aI0
aI0
aI9
aI6
aI2
aI0
aI0
aI1
aI5
aI7
aI4
aI0
aI3
aI5
aI6
aI2
aI1
aI3
aI9
aI4
aI1
aI0
aI0
aI5
aI9
aI2
aI1
aI0
aI1
aI16
aI0
aI0
aI6
aI8
aI2
aI1
aI0
aI3
aI9
aI5
aa(lp518
S'41618'
p519
aI2
aI6
aI2
aI1
aI0
aI2
aI6
aI1
aI2
aI0
aI0
aI1
aI3
aI3
aI3
aI0
aI2
aI1
aI5
aI3
aI0
aI2
aI3
aI4
aI2
aI0
aI3
aI8
aI0
aI0
aI0
aI1
aI9
aI0
aI0
aI1
aI4
aI4
aI1
aI1
aI1
aI6
aI4
aa(lp520
S'41650'
p521
aI0
aI0
aI0
aI0
aI0
aI0
aI0
aI0
aI0
aI0
aI0
aI0
aI0
aI0
aI0
aI0
aI0
aI0
aI0
aI0
aI0
aI0
aI0
aI0
aI0
aI0
aI0
aI0
aI0
aI0
aI0
aI0
aI0
aI0
aI0
aI0
aI0
aI0
aI0
aI0
aI0
aI0
aI0
aa(lp522
S'41651'
p523
aI4
aI3
aI0
aI1
aI0
aI6
aI1
aI0
aI1
aI0
aI3
aI1
aI2
aI2
aI0
aI1
aI2
aI2
aI3
aI0
aI4
aI2
aI1
aI1
aI0
aI0
aI1
aI6
aI0
aI1
aI0
aI0
aI7
aI0
aI1
aI2
aI4
aI0
aI1
aI1
aI3
aI4
aI1
aa(lp524
S'41659'
p525
aI7
aI14
aI3
aI1
aI1
aI5
aI15
aI4
aI2
aI0
aI2
aI10
aI9
aI4
aI1
aI2
aI5
aI11
aI5
aI3
aI7
aI11
aI4
aI4
aI0
aI1
aI8
aI16
aI1
aI0
aI0
aI0
aI26
aI0
aI0
aI6
aI12
aI6
aI1
aI1
aI20
aI0
aI6
aa(lp526
S'41704'
p527
aI5
aI5
aI0
aI1
aI0
aI5
aI5
aI0
aI1
aI0
aI4
aI6
aI0
aI0
aI1
aI2
aI7
aI1
aI1
aI0
aI3
aI7
aI0
aI1
aI0
aI0
aI1
aI10
aI0
aI0
aI0
aI1
aI10
aI0
aI0
aI4
aI5
aI1
aI0
aI1
aI4
aI3
aI4
aa(lp528
S'41706'
p529
aI0
aI0
aI1
aI0
aI0
aI0
aI0
aI1
aI0
aI0
aI0
aI0
aI1
aI0
aI0
aI0
aI0
aI1
aI0
aI0
aI0
aI0
aI1
aI0
aI0
aI0
aI0
aI1
aI0
aI0
aI0
aI0
aI1
aI0
aI0
aI0
aI0
aI1
aI0
aI0
aI0
aI0
aI1
aa(lp530
S'41713'
p531
aI3
aI9
aI4
aI9
aI1
aI2
aI9
aI9
aI6
aI0
aI1
aI9
aI7
aI7
aI2
aI3
aI5
aI5
aI9
aI3
aI2
aI10
aI8
aI4
aI2
aI3
aI10
aI10
aI3
aI0
aI1
aI4
aI19
aI2
aI0
aI2
aI8
aI6
aI6
aI4
aI7
aI7
aI12
aa(lp532
S'41801'
p533
aI19
aI8
aI2
aI0
aI0
aI26
aI3
aI0
aI0
aI0
aI3
aI5
aI17
aI4
aI0
aI3
aI3
aI20
aI3
aI0
aI11
aI8
aI9
aI0
aI0
aI1
aI1
aI13
aI10
aI4
aI0
aI0
aI29
aI0
aI0
aI21
aI7
aI1
aI0
aI0
aI7
aI13
aI8
aa(lp534
S'41812'
p535
aI11
aI21
aI3
aI1
aI0
aI18
aI12
aI3
aI2
aI0
aI8
aI8
aI15
aI3
aI2
aI7
aI9
aI15
aI4
aI1
aI10
aI12
aI10
aI3
aI1
aI0
aI5
aI18
aI11
aI2
aI0
aI0
aI32
aI3
aI1
aI8
aI22
aI5
aI1
aI0
aI23
aI1
aI12
aa(lp536
S'41814'
p537
aI5
aI15
aI6
aI4
aI1
aI6
aI13
aI4
aI5
aI2
aI5
aI14
aI7
aI3
aI1
aI2
aI13
aI14
aI1
aI0
aI7
aI13
aI9
aI0
aI1
aI0
aI3
aI23
aI4
aI0
aI0
aI2
aI26
aI2
aI0
aI5
aI15
aI7
aI1
aI2
aI19
aI6
aI5
aa(lp538
S'41842'
p539
aI3
aI2
aI1
aI0
aI0
aI4
aI1
aI1
aI0
aI0
aI1
aI0
aI3
aI2
aI0
aI0
aI3
aI3
aI0
aI0
aI4
aI0
aI2
aI0
aI0
aI1
aI1
aI1
aI2
aI0
aI0
aI0
aI6
aI0
aI0
aI3
aI2
aI1
aI0
aI0
aI1
aI5
aI0
aa(lp540
S'42005'
p541
aI2
aI5
aI5
aI1
aI0
aI2
aI4
aI5
aI1
aI1
aI4
aI3
aI3
aI2
aI1
aI1
aI1
aI3
aI5
aI3
aI2
aI3
aI6
aI0
aI2
aI0
aI3
aI9
aI1
aI0
aI0
aI2
aI10
aI1
aI0
aI2
aI4
aI4
aI3
aI0
aI5
aI4
aI4
aa(lp542
S'42011'
p543
aI5
aI11
aI1
aI2
aI2
aI4
aI10
aI2
aI4
aI0
aI5
aI10
aI2
aI1
aI2
aI2
aI4
aI6
aI5
aI3
aI9
aI6
aI3
aI0
aI2
aI0
aI4
aI13
aI1
aI2
aI1
aI3
aI14
aI1
aI0
aI5
aI8
aI3
aI2
aI2
aI17
aI1
aI2
aa(lp544
S'42021'
p545
aI1
aI8
aI12
aI9
aI4
aI3
aI11
aI8
aI8
aI4
aI3
aI9
aI14
aI6
aI2
aI2
aI3
aI12
aI12
aI5
aI1
aI11
aI11
aI10
aI1
aI2
aI6
aI25
aI0
aI1
aI0
aI3
aI30
aI1
aI0
aI3
aI5
aI10
aI12
aI3
aI27
aI3
aI4
aa(lp546
S'42042'
p547
aI4
aI5
aI3
aI5
aI0
aI5
aI5
aI5
aI2
aI0
aI1
aI6
aI6
aI4
aI0
aI3
aI3
aI7
aI4
aI0
aI3
aI5
aI6
aI3
aI0
aI0
aI0
aI12
aI4
aI1
aI0
aI0
aI17
aI0
aI0
aI3
aI8
aI2
aI3
aI1
aI10
aI0
aI6
aa(lp548
S'42062'
p549
aI2
aI9
aI9
aI3
aI2
aI8
aI8
aI5
aI4
aI0
aI1
aI5
aI13
aI5
aI1
aI3
aI10
aI6
aI4
aI1
aI3
aI10
aI7
aI3
aI1
aI0
aI3
aI19
aI3
aI0
aI0
aI0
aI22
aI3
aI0
aI3
aI7
aI9
aI4
aI2
aI18
aI2
aI4
aa(lp550
S'42101'
p551
aI14
aI10
aI4
aI5
aI0
aI6
aI17
aI7
aI3
aI0
aI3
aI7
aI10
aI9
aI4
aI7
aI13
aI9
aI4
aI0
aI11
aI8
aI8
aI5
aI1
aI0
aI5
aI23
aI4
aI1
aI0
aI2
aI27
aI3
aI1
aI9
aI16
aI5
aI2
aI1
aI16
aI9
aI8
aa(lp552
S'42107'
p553
aI2
aI6
aI0
aI1
aI0
aI2
aI5
aI1
aI1
aI0
aI2
aI1
aI5
aI1
aI0
aI1
aI2
aI4
aI1
aI1
aI1
aI2
aI2
aI2
aI2
aI0
aI3
aI5
aI1
aI0
aI0
aI0
aI9
aI0
aI0
aI1
aI5
aI2
aI1
aI0
aI8
aI0
aI1
aa(lp554
S'42175'
p555
aI0
aI3
aI0
aI0
aI0
aI2
aI1
aI0
aI0
aI0
aI0
aI3
aI0
aI0
aI0
aI0
aI1
aI2
aI0
aI0
aI0
aI3
aI0
aI0
aI0
aI1
aI0
aI0
aI2
aI0
aI0
aI0
aI3
aI0
aI0
aI0
aI2
aI1
aI0
aI0
aI3
aI0
aI0
aa(lp556
S'42270'
p557
aI1
aI3
aI1
aI1
aI0
aI2
aI2
aI2
aI0
aI0
aI1
aI0
aI3
aI2
aI0
aI0
aI1
aI4
aI1
aI0
aI2
aI3
aI1
aI0
aI0
aI1
aI0
aI4
aI0
aI1
aI0
aI1
aI4
aI0
aI1
aI2
aI3
aI1
aI0
aI0
aI0
aI4
aI2
aa(lp558
S'42340'
p559
aI3
aI9
aI3
aI1
aI0
aI8
aI5
aI3
aI0
aI0
aI3
aI8
aI4
aI1
aI0
aI4
aI6
aI2
aI4
aI0
aI8
aI4
aI4
aI0
aI0
aI0
aI0
aI15
aI1
aI0
aI0
aI0
aI15
aI0
aI0
aI5
aI9
aI2
aI0
aI0
aI2
aI14
aI0
aa(lp560
S'42406'
p561
aI4
aI6
aI6
aI7
aI0
aI7
aI9
aI5
aI2
aI0
aI2
aI4
aI8
aI3
aI6
aI2
aI7
aI6
aI5
aI3
aI5
aI6
aI6
aI5
aI1
aI2
aI2
aI17
aI2
aI0
aI0
aI0
aI21
aI2
aI0
aI3
aI8
aI8
aI2
aI2
aI3
aI14
aI5
aa(lp562
S'42415'
p563
aI9
aI4
aI2
aI1
aI0
aI6
aI5
aI2
aI2
aI1
aI4
aI3
aI4
aI4
aI1
aI2
aI5
aI7
aI1
aI1
aI5
aI9
aI1
aI1
aI0
aI0
aI4
aI9
aI3
aI0
aI0
aI0
aI15
aI1
aI0
aI6
aI6
aI2
aI2
aI0
aI0
aI11
aI5
aa(lp564
S'42421'
p565
aI6
aI7
aI5
aI3
aI0
aI6
aI8
aI4
aI2
aI1
aI5
aI7
aI4
aI4
aI1
aI1
aI6
aI5
aI7
aI1
aI4
aI6
aI6
aI4
aI1
aI0
aI5
aI11
aI4
aI1
aI0
aI2
aI16
aI3
aI0
aI6
aI8
aI3
aI4
aI0
aI13
aI4
aI4
aa(lp566
S'42429'
p567
aI16
aI11
aI2
aI1
aI1
aI22
aI5
aI3
aI0
aI1
aI11
aI14
aI4
aI1
aI1
aI12
aI12
aI2
aI4
aI1
aI21
aI7
aI2
aI0
aI1
aI0
aI3
aI20
aI7
aI1
aI0
aI1
aI29
aI1
aI0
aI21
aI7
aI0
aI1
aI2
aI10
aI14
aI7
aa(lp568
S'42430'
p569
aI27
aI36
aI35
aI27
aI17
aI39
aI44
aI19
aI22
aI17
aI30
aI37
aI37
aI21
aI15
aI15
aI35
aI26
aI26
aI38
aI28
aI32
aI38
aI27
aI16
aI7
aI16
aI60
aI29
aI29
aI0
aI8
aI120
aI11
aI1
aI19
aI35
aI37
aI30
aI20
aI68
aI37
aI36
aa(lp570
S'42580'
p571
aI1
aI8
aI10
aI9
aI1
aI9
aI11
aI7
aI1
aI1
aI0
aI14
aI11
aI4
aI0
aI4
aI6
aI8
aI8
aI3
aI4
aI11
aI8
aI4
aI2
aI3
aI11
aI12
aI3
aI0
aI0
aI1
aI26
aI1
aI0
aI1
aI8
aI7
aI10
aI3
aI4
aI18
aI7
aa(lp572
S'42582'
p573
aI2
aI10
aI11
aI8
aI7
aI5
aI6
aI10
aI6
aI10
aI5
aI8
aI6
aI15
aI4
aI4
aI13
aI11
aI4
aI6
aI3
aI15
aI8
aI5
aI7
aI9
aI12
aI16
aI1
aI0
aI0
aI4
aI33
aI0
aI0
aI2
aI11
aI9
aI8
aI8
aI18
aI10
aI9
aa(lp574
S'42583'
p575
aI2
aI3
aI2
aI2
aI0
aI4
aI4
aI1
aI0
aI0
aI1
aI1
aI4
aI2
aI1
aI0
aI4
aI5
aI0
aI0
aI3
aI3
aI1
aI2
aI0
aI0
aI2
aI6
aI1
aI0
aI0
aI0
aI9
aI0
aI0
aI2
aI5
aI0
aI2
aI0
aI4
aI3
aI2
aa(lp576
S'42584'
p577
aI3
aI0
aI0
aI0
aI0
aI3
aI0
aI0
aI0
aI0
aI1
aI1
aI0
aI1
aI0
aI2
aI0
aI1
aI0
aI0
aI1
aI2
aI0
aI0
aI0
aI0
aI0
aI1
aI2
aI0
aI0
aI1
aI2
aI0
aI0
aI3
aI0
aI0
aI0
aI0
aI0
aI3
aI0
aa(lp578
S'42610'
p579
aI6
aI29
aI38
aI36
aI27
aI9
aI31
aI43
aI37
aI15
aI7
aI28
aI46
aI34
aI20
aI10
aI31
aI46
aI30
aI17
aI14
aI34
aI42
aI31
aI14
aI22
aI45
aI61
aI5
aI2
aI2
aI3
aI121
aI7
aI2
aI7
aI27
aI26
aI43
aI32
aI84
aI19
aI32
aa(lp580
S'42872'
p581
aI2
aI5
aI3
aI4
aI0
aI4
aI4
aI3
aI1
aI2
aI3
aI3
aI5
aI1
aI2
aI3
aI5
aI2
aI2
aI2
aI1
aI5
aI4
aI0
aI3
aI0
aI2
aI10
aI2
aI0
aI0
aI0
aI14
aI0
aI0
aI4
aI3
aI4
aI2
aI1
aI9
aI3
aI2
aa(lp582
S'42875'
p583
aI1
aI4
aI0
aI0
aI0
aI1
aI3
aI1
aI0
aI0
aI1
aI1
aI1
aI2
aI0
aI1
aI1
aI3
aI0
aI0
aI1
aI2
aI2
aI0
aI0
aI1
aI1
aI3
aI0
aI0
aI0
aI0
aI5
aI0
aI0
aI2
aI2
aI1
aI0
aI0
aI3
aI1
aI1
aa(lp584
S'46000'
p585
aI4
aI3
aI0
aI0
aI0
aI7
aI0
aI0
aI0
aI0
aI3
aI4
aI0
aI0
aI0
aI3
aI3
aI1
aI0
aI0
aI5
aI2
aI0
aI0
aI0
aI0
aI3
aI4
aI0
aI0
aI0
aI1
aI6
aI0
aI0
aI5
aI2
aI0
aI0
aI0
aI5
aI0
aI2
aa(lp586
S'46010'
p587
aI2
aI0
aI0
aI0
aI0
aI2
aI0
aI0
aI0
aI0
aI1
aI1
aI0
aI0
aI0
aI0
aI1
aI1
aI0
aI0
aI1
aI1
aI0
aI0
aI0
aI0
aI0
aI0
aI2
aI0
aI0
aI0
aI2
aI0
aI0
aI2
aI0
aI0
aI0
aI0
aI0
aI0
aI2
aa(lp588
S'46440'
p589
aI9
aI0
aI0
aI0
aI0
aI9
aI0
aI0
aI0
aI0
aI5
aI3
aI1
aI0
aI0
aI4
aI1
aI4
aI0
aI0
aI9
aI0
aI0
aI0
aI0
aI1
aI3
aI4
aI1
aI0
aI1
aI0
aI8
aI0
aI0
aI9
aI0
aI0
aI0
aI0
aI4
aI4
aI1
aa(lp590
S'KU002'
p591
aI17
aI16
aI4
aI1
aI0
aI8
aI13
aI12
aI4
aI1
aI8
aI18
aI9
aI3
aI0
aI6
aI13
aI10
aI3
aI3
aI7
aI19
aI8
aI3
aI0
aI1
aI6
aI12
aI12
aI5
aI1
aI0
aI23
aI10
aI2
aI8
aI18
aI6
aI4
aI0
aI13
aI15
aI8
aa(lp592
S'KU003'
p593
aI4
aI2
aI2
aI0
aI0
aI2
aI0
aI3
aI1
aI1
aI4
aI1
aI2
aI0
aI0
aI1
aI0
aI3
aI1
aI2
aI2
aI2
aI3
aI0
aI0
aI0
aI1
aI6
aI0
aI0
aI0
aI1
aI6
aI0
aI0
aI3
aI2
aI2
aI0
aI0
aI3
aI3
aI1
aa(lp594
S'KU004'
p595
aI1
aI6
aI3
aI4
aI0
aI1
aI1
aI3
aI7
aI2
aI0
aI6
aI3
aI5
aI0
aI1
aI1
aI2
aI6
aI4
aI1
aI1
aI7
aI4
aI1
aI0
aI1
aI6
aI5
aI2
aI0
aI0
aI10
aI4
aI0
aI1
aI4
aI5
aI4
aI0
aI0
aI0
aI0
aa(lp596
S'KU005'
p597
aI2
aI1
aI3
aI1
aI0
aI2
aI2
aI2
aI1
aI0
aI2
aI3
aI1
aI1
aI0
aI1
aI2
aI1
aI2
aI1
aI3
aI1
aI1
aI1
aI1
aI1
aI0
aI5
aI1
aI0
aI0
aI1
aI5
aI0
aI1
aI1
aI2
aI3
aI1
aI0
aI1
aI5
aI1
aa(lp598
S'KU006'
p599
aI4
aI3
aI2
aI1
aI0
aI6
aI2
aI1
aI0
aI1
aI1
aI2
aI5
aI0
aI0
aI0
aI3
aI5
aI1
aI1
aI1
aI6
aI3
aI0
aI0
aI0
aI4
aI5
aI1
aI0
aI0
aI0
aI10
aI0
aI0
aI3
aI5
aI2
aI0
aI0
aI4
aI6
aI0
aa(lp600
S'KU009'
p601
aI1
aI3
aI0
aI2
aI1
aI1
aI2
aI1
aI2
aI1
aI1
aI1
aI1
aI3
aI1
aI1
aI0
aI3
aI1
aI2
aI1
aI2
aI1
aI2
aI1
aI4
aI0
aI3
aI0
aI0
aI0
aI0
aI7
aI0
aI0
aI3
aI1
aI0
aI2
aI1
aI1
aI4
aI2
aa(lp602
S'KU010'
p603
aI1
aI3
aI3
aI1
aI0
aI2
aI3
aI3
aI0
aI0
aI0
aI4
aI3
aI0
aI1
aI1
aI1
aI6
aI0
aI0
aI2
aI2
aI4
aI0
aI0
aI0
aI0
aI5
aI3
aI0
aI0
aI0
aI8
aI0
aI0
aI2
aI2
aI2
aI2
aI0
aI0
aI6
aI2
aa(lp604
S'KU011'
p605
aI2
aI3
aI2
aI1
aI0
aI1
aI2
aI2
aI1
aI2
aI0
aI5
aI2
aI1
aI0
aI0
aI2
aI2
aI2
aI2
aI2
aI3
aI1
aI2
aI0
aI0
aI1
aI4
aI2
aI1
aI0
aI0
aI4
aI1
aI3
aI1
aI2
aI3
aI2
aI0
aI0
aI1
aI7
aa(lp606
S'KU012'
p607
aI6
aI3
aI3
aI0
aI0
aI3
aI5
aI3
aI0
aI1
aI5
aI5
aI2
aI0
aI0
aI5
aI1
aI6
aI0
aI0
aI7
aI4
aI1
aI0
aI0
aI1
aI2
aI7
aI2
aI0
aI0
aI1
aI11
aI0
aI0
aI7
aI2
aI1
aI1
aI1
aI0
aI10
aI2
aa.