(lp0
(lp1
S'01005'
p2
aI602
aI334
aI169
aI61
aI27
aI11
aI272
aI204
aI78
aI37
aI8
aI174
aI258
aI111
aI48
aI8
aI104
aI182
aI207
aI85
aI19
aI162
aI244
aI133
aI50
aI8
aI6
aI99
aI279
aI155
aI58
aI1
aI17
aI451
aI112
aI16
aI187
aI249
aI84
aI67
aI12
aI377
aI102
aI117
aa(lp3
S'01006'
p4
aI24
aI16
aI4
aI2
aI2
aI0
aI11
aI7
aI4
aI2
aI0
aI10
aI5
aI5
aI3
aI0
aI3
aI11
aI5
aI2
aI3
aI11
aI9
aI1
aI2
aI0
aI1
aI4
aI10
aI5
aI4
aI0
aI1
aI21
aI1
aI0
aI16
aI4
aI2
aI2
aI0
aI15
aI4
aI5
aa(lp5
S'01017'
p6
aI137
aI59
aI58
aI12
aI4
aI4
aI43
aI62
aI23
aI6
aI2
aI41
aI68
aI15
aI10
aI3
aI24
aI53
aI45
aI14
aI1
aI56
aI43
aI25
aI11
aI2
aI9
aI39
aI78
aI9
aI1
aI2
aI3
aI127
aI4
aI0
aI59
aI58
aI9
aI6
aI4
aI58
aI38
aI40
aa(lp7
S'01025'
p8
aI28
aI21
aI6
aI0
aI1
aI0
aI18
aI6
aI4
aI0
aI0
aI20
aI6
aI2
aI0
aI0
aI11
aI10
aI1
aI5
aI1
aI15
aI8
aI4
aI1
aI0
aI1
aI2
aI9
aI11
aI5
aI1
aI0
aI25
aI2
aI0
aI16
aI9
aI1
aI1
aI0
aI24
aI3
aI1
aa(lp9
S'01035'
p10
aI159
aI54
aI78
aI17
aI7
aI3
aI65
aI53
aI27
aI8
aI6
aI65
aI59
aI22
aI8
aI5
aI32
aI53
aI45
aI20
aI9
aI39
aI64
aI39
aI13
aI4
aI2
aI37
aI95
aI23
aI2
aI0
aI3
aI140
aI11
aI1
aI49
aI73
aI18
aI15
aI3
aI26
aI81
aI52
aa(lp11
S'01037'
p12
aI23
aI13
aI5
aI3
aI1
aI1
aI7
aI7
aI9
aI0
aI0
aI6
aI11
aI5
aI1
aI0
aI5
aI6
aI6
aI3
aI3
aI7
aI5
aI5
aI5
aI0
aI1
aI1
aI9
aI7
aI5
aI0
aI1
aI18
aI3
aI1
aI9
aI8
aI4
aI2
aI0
aI5
aI13
aI5
aa(lp13
S'01237'
p14
aI34
aI10
aI13
aI8
aI3
aI0
aI9
aI13
aI8
aI4
aI0
aI9
aI11
aI7
aI5
aI1
aI1
aI6
aI11
aI11
aI5
aI8
aI7
aI11
aI6
aI2
aI0
aI4
aI19
aI7
aI4
aI0
aI0
aI31
aI3
aI0
aI8
aI11
aI12
aI3
aI0
aI4
aI21
aI9
aa(lp15
S'01666'
p16
aI17
aI9
aI6
aI2
aI0
aI0
aI11
aI5
aI1
aI0
aI0
aI4
aI2
aI5
aI3
aI3
aI5
aI5
aI2
aI3
aI2
aI4
aI1
aI9
aI1
aI2
aI0
aI1
aI9
aI7
aI0
aI0
aI0
aI17
aI0
aI0
aI5
aI6
aI5
aI0
aI1
aI4
aI9
aI4
aa(lp17
S'02101'
p18
aI82
aI24
aI22
aI18
aI10
aI8
aI20
aI25
aI20
aI10
aI7
aI13
aI27
aI20
aI16
aI6
aI13
aI17
aI35
aI10
aI7
aI12
aI25
aI24
aI16
aI5
aI15
aI19
aI32
aI13
aI3
aI3
aI5
aI66
aI6
aI1
aI16
aI28
aI24
aI9
aI5
aI18
aI26
aI38
aa(lp19
S'02102'
p20
aI42
aI18
aI14
aI6
aI4
aI0
aI18
aI16
aI5
aI2
aI1
aI16
aI16
aI8
aI2
aI0
aI9
aI14
aI12
aI6
aI1
aI11
aI23
aI6
aI2
aI0
aI1
aI10
aI23
aI7
aI1
aI0
aI1
aI34
aI7
aI0
aI20
aI15
aI6
aI1
aI0
aI21
aI5
aI16
aa(lp21
S'02105'
p22
aI58
aI34
aI16
aI4
aI2
aI2
aI33
aI18
aI2
aI3
aI2
aI27
aI16
aI7
aI7
aI1
aI21
aI19
aI9
aI4
aI4
aI36
aI13
aI6
aI1
aI2
aI2
aI16
aI34
aI4
aI1
aI1
aI4
aI51
aI2
aI0
aI41
aI12
aI2
aI1
aI2
aI35
aI10
aI13
aa(lp23
S'02121'
p24
aI23
aI2
aI10
aI6
aI3
aI2
aI6
aI7
aI3
aI4
aI3
aI2
aI6
aI8
aI4
aI3
aI1
aI3
aI10
aI5
aI4
aI3
aI8
aI7
aI2
aI3
aI0
aI7
aI15
aI1
aI0
aI0
aI0
aI21
aI1
aI0
aI5
aI5
aI5
aI5
aI3
aI2
aI11
aI10
aa(lp25
S'02122'
p26
aI13
aI5
aI5
aI2
aI1
aI0
aI5
aI3
aI1
aI3
aI1
aI2
aI2
aI8
aI0
aI1
aI2
aI5
aI3
aI2
aI1
aI4
aI3
aI4
aI2
aI0
aI0
aI1
aI8
aI4
aI0
aI0
aI0
aI13
aI0
aI0
aI5
aI5
aI1
aI1
aI1
aI5
aI5
aI3
aa(lp27
S'02128'
p28
aI21
aI8
aI10
aI2
aI1
aI0
aI13
aI5
aI2
aI1
aI0
aI4
aI7
aI6
aI3
aI1
aI3
aI6
aI9
aI3
aI0
aI8
aI6
aI4
aI3
aI0
aI0
aI3
aI13
aI5
aI0
aI0
aI0
aI18
aI2
aI1
aI10
aI5
aI5
aI1
aI0
aI4
aI12
aI5
aa(lp29
S'02131'
p30
aI35
aI14
aI10
aI6
aI4
aI1
aI11
aI9
aI11
aI3
aI1
aI4
aI6
aI11
aI6
aI8
aI6
aI10
aI7
aI7
aI5
aI6
aI11
aI7
aI7
aI4
aI0
aI3
aI16
aI11
aI5
aI0
aI3
aI30
aI2
aI0
aI5
aI16
aI3
aI5
aI6
aI6
aI18
aI10
aa(lp31
S'02138'
p32
aI58
aI26
aI21
aI8
aI2
aI1
aI19
aI27
aI6
aI4
aI1
aI11
aI21
aI18
aI6
aI1
aI3
aI17
aI18
aI16
aI3
aI12
aI19
aI18
aI5
aI3
aI0
aI7
aI42
aI7
aI0
aI0
aI2
aI45
aI7
aI2
aI12
aI28
aI11
aI4
aI2
aI45
aI1
aI11
aa(lp33
S'02139'
p34
aI20
aI4
aI10
aI4
aI2
aI0
aI5
aI8
aI7
aI0
aI0
aI4
aI7
aI6
aI3
aI0
aI4
aI1
aI10
aI2
aI3
aI9
aI5
aI6
aI0
aI0
aI0
aI4
aI13
aI3
aI0
aI0
aI1
aI18
aI0
aI1
aI4
aI10
aI4
aI2
aI0
aI8
aI2
aI10
aa(lp35
S'02141'
p36
aI27
aI7
aI10
aI6
aI4
aI0
aI6
aI10
aI7
aI4
aI0
aI6
aI3
aI11
aI5
aI2
aI1
aI3
aI12
aI3
aI8
aI7
aI7
aI9
aI2
aI2
aI3
aI2
aI15
aI7
aI0
aI0
aI0
aI24
aI2
aI0
aI4
aI7
aI10
aI3
aI3
aI1
aI18
aI8
aa(lp37
S'02148'
p38
aI12
aI0
aI6
aI3
aI3
aI0
aI5
aI6
aI1
aI0
aI0
aI0
aI1
aI6
aI2
aI3
aI0
aI2
aI2
aI6
aI2
aI0
aI2
aI6
aI3
aI1
aI0
aI5
aI7
aI0
aI0
aI0
aI1
aI10
aI1
aI0
aI2
aI6
aI4
aI0
aI0
aI12
aI0
aI0
aa(lp39
S'02155'
p40
aI33
aI8
aI15
aI5
aI4
aI1
aI6
aI10
aI12
aI3
aI2
aI8
aI11
aI6
aI7
aI1
aI2
aI12
aI12
aI5
aI2
aI3
aI17
aI9
aI3
aI1
aI2
aI5
aI19
aI7
aI0
aI0
aI3
aI27
aI2
aI1
aI3
aI17
aI8
aI4
aI1
aI21
aI4
aI8
aa(lp41
S'02156'
p42
aI19
aI4
aI8
aI4
aI3
aI0
aI4
aI6
aI4
aI3
aI2
aI2
aI8
aI2
aI5
aI2
aI5
aI5
aI4
aI4
aI1
aI5
aI5
aI5
aI3
aI1
aI0
aI4
aI15
aI0
aI0
aI0
aI1
aI18
aI0
aI0
aI2
aI10
aI3
aI2
aI2
aI9
aI3
aI7
aa(lp43
S'02157'
p44
aI30
aI15
aI12
aI0
aI3
aI0
aI10
aI11
aI5
aI4
aI0
aI10
aI9
aI4
aI5
aI2
aI10
aI10
aI7
aI3
aI0
aI12
aI8
aI7
aI3
aI0
aI1
aI4
aI18
aI6
aI1
aI0
aI1
aI28
aI1
aI0
aI10
aI11
aI4
aI4
aI1
aI17
aI3
aI10
aa(lp45
S'02158'
p46
aI24
aI8
aI14
aI0
aI2
aI0
aI8
aI13
aI1
aI2
aI0
aI5
aI12
aI4
aI3
aI0
aI6
aI11
aI3
aI2
aI2
aI8
aI12
aI2
aI1
aI1
aI0
aI3
aI10
aI9
aI2
aI0
aI1
aI22
aI0
aI1
aI5
aI16
aI1
aI2
aI0
aI8
aI7
aI9
aa(lp47
S'02159'
p48
aI18
aI1
aI8
aI1
aI4
aI4
aI4
aI2
aI3
aI2
aI7
aI1
aI7
aI5
aI3
aI2
aI2
aI3
aI4
aI2
aI7
aI1
aI4
aI6
aI3
aI4
aI1
aI3
aI5
aI4
aI5
aI1
aI2
aI10
aI2
aI3
aI2
aI4
aI4
aI3
aI5
aI3
aI9
aI6
aa(lp49
S'02161'
p50
aI36
aI2
aI8
aI10
aI11
aI5
aI4
aI6
aI10
aI9
aI7
aI1
aI7
aI9
aI9
aI10
aI1
aI4
aI13
aI9
aI9
aI2
aI8
aI13
aI7
aI6
aI2
aI14
aI17
aI2
aI1
aI2
aI3
aI29
aI1
aI1
aI1
aI7
aI10
aI11
aI7
aI20
aI6
aI10
aa(lp51
S'02170'
p52
aI35
aI17
aI13
aI5
aI0
aI0
aI14
aI12
aI8
aI1
aI0
aI15
aI16
aI4
aI0
aI0
aI8
aI10
aI10
aI2
aI5
aI16
aI14
aI4
aI1
aI0
aI0
aI6
aI22
aI7
aI0
aI0
aI1
aI33
aI1
aI0
aI18
aI13
aI3
aI1
aI0
aI5
aI20
aI10
aa(lp53
S'02190'
p54
aI14
aI3
aI0
aI5
aI4
aI2
aI2
aI1
aI5
aI3
aI3
aI2
aI3
aI2
aI5
aI2
aI1
aI2
aI4
aI1
aI6
aI2
aI3
aI4
aI2
aI3
aI2
aI1
aI9
aI2
aI0
aI0
aI0
aI10
aI3
aI1
aI2
aI2
aI4
aI5
aI1
aI6
aI6
aI2
aa(lp55
S'02350'
p56
aI28
aI7
aI7
aI5
aI7
aI2
aI9
aI7
aI6
aI4
aI2
aI2
aI6
aI6
aI4
aI9
aI4
aI4
aI8
aI4
aI7
aI1
aI7
aI8
aI5
aI6
aI1
aI2
aI16
aI6
aI2
aI0
aI3
aI19
aI3
aI2
aI5
aI9
aI0
aI8
aI5
aI10
aI4
aI13
aa(lp57
S'02402'
p58
aI121
aI43
aI49
aI16
aI9
aI3
aI43
aI38
aI25
aI12
aI2
aI37
aI40
aI20
aI16
aI4
aI22
aI41
aI37
aI17
aI2
aI42
aI40
aI22
aI13
aI2
aI6
aI26
aI67
aI17
aI3
aI1
aI2
aI109
aI6
aI1
aI38
aI46
aI19
aI13
aI1
aI29
aI47
aI44
aa(lp59
S'02403'
p60
aI117
aI29
aI56
aI17
aI12
aI3
aI29
aI43
aI23
aI16
aI6
aI32
aI50
aI22
aI10
aI3
aI10
aI32
aI39
aI26
aI10
aI15
aI47
aI28
aI21
aI6
aI1
aI15
aI51
aI36
aI14
aI1
aI2
aI101
aI10
aI3
aI25
aI48
aI16
aI24
aI4
aI71
aI37
aI9
aa(lp61
S'02405'
p62
aI41
aI13
aI16
aI7
aI4
aI1
aI18
aI12
aI9
aI2
aI0
aI7
aI11
aI11
aI8
aI4
aI5
aI10
aI16
aI7
aI3
aI10
aI10
aI17
aI4
aI0
aI0
aI8
aI9
aI17
aI7
aI0
aI5
aI24
aI9
aI3
aI9
aI14
aI10
aI5
aI3
aI11
aI19
aI10
aa(lp63
S'02413'
p64
aI7
aI5
aI1
aI0
aI1
aI0
aI4
aI2
aI1
aI0
aI0
aI4
aI2
aI1
aI0
aI0
aI4
aI1
aI0
aI2
aI0
aI4
aI1
aI2
aI0
aI0
aI0
aI1
aI4
aI0
aI2
aI1
aI1
aI5
aI0
aI0
aI4
aI1
aI1
aI1
aI0
aI6
aI1
aI0
aa(lp65
S'02450'
p66
aI94
aI44
aI20
aI15
aI12
aI3
aI43
aI19
aI19
aI11
aI2
aI33
aI29
aI14
aI12
aI6
aI21
aI22
aI24
aI18
aI8
aI34
aI27
aI18
aI9
aI6
aI1
aI6
aI41
aI35
aI11
aI3
aI6
aI71
aI6
aI8
aI40
aI24
aI10
aI11
aI8
aI43
aI27
aI24
aa(lp67
S'02502'
p68
aI20
aI2
aI9
aI7
aI1
aI1
aI5
aI6
aI6
aI3
aI0
aI3
aI8
aI2
aI6
aI1
aI1
aI7
aI6
aI5
aI1
aI2
aI10
aI5
aI3
aI0
aI4
aI7
aI8
aI1
aI0
aI0
aI1
aI19
aI0
aI0
aI3
aI7
aI8
aI1
aI1
aI12
aI3
aI5
aa(lp69
S'02511'
p70
aI42
aI18
aI18
aI2
aI3
aI1
aI19
aI15
aI4
aI2
aI2
aI22
aI14
aI2
aI2
aI2
aI11
aI10
aI17
aI3
aI1
aI22
aI13
aI3
aI3
aI1
aI0
aI4
aI32
aI2
aI3
aI0
aI1
aI37
aI3
aI0
aI23
aI14
aI1
aI3
aI1
aI23
aI12
aI7
aa(lp71
S'02512'
p72
aI22
aI9
aI9
aI3
aI1
aI0
aI16
aI4
aI1
aI0
aI1
aI8
aI12
aI1
aI0
aI1
aI5
aI5
aI8
aI3
aI0
aI8
aI8
aI3
aI1
aI1
aI3
aI4
aI14
aI1
aI0
aI1
aI3
aI17
aI0
aI1
aI10
aI8
aI2
aI1
aI1
aI18
aI3
aI1
aa(lp73
S'02525'
p74
aI31
aI12
aI10
aI6
aI1
aI2
aI8
aI15
aI6
aI1
aI1
aI4
aI9
aI9
aI5
aI4
aI1
aI10
aI11
aI9
aI0
aI3
aI7
aI12
aI5
aI4
aI2
aI2
aI22
aI4
aI1
aI0
aI1
aI24
aI5
aI1
aI11
aI8
aI5
aI6
aI0
aI26
aI1
aI3
aa(lp75
S'02526'
p76
aI25
aI3
aI8
aI6
aI6
aI2
aI7
aI8
aI8
aI2
aI0
aI2
aI7
aI12
aI3
aI1
aI1
aI6
aI4
aI9
aI5
aI5
aI7
aI8
aI3
aI2
aI0
aI2
aI20
aI3
aI0
aI1
aI1
aI18
aI3
aI2
aI2
aI9
aI10
aI3
aI1
aI11
aI8
aI6
aa(lp77
S'02601'
p78
aI42
aI12
aI9
aI12
aI5
aI4
aI10
aI11
aI12
aI7
aI2
aI4
aI10
aI8
aI13
aI7
aI3
aI12
aI12
aI9
aI6
aI7
aI13
aI12
aI6
aI4
aI3
aI6
aI22
aI8
aI3
aI1
aI6
aI24
aI6
aI5
aI8
aI11
aI9
aI9
aI5
aI29
aI5
aI8
aa(lp79
S'02609'
p80
aI26
aI2
aI11
aI12
aI1
aI0
aI1
aI10
aI12
aI3
aI0
aI1
aI15
aI7
aI3
aI0
aI1
aI7
aI7
aI6
aI5
aI2
aI11
aI7
aI5
aI0
aI2
aI2
aI12
aI8
aI2
aI0
aI0
aI19
aI6
aI1
aI0
aI8
aI13
aI4
aI1
aI19
aI4
aI3
aa(lp81
S'02631'
p82
aI59
aI23
aI20
aI7
aI7
aI2
aI23
aI13
aI7
aI8
aI8
aI20
aI9
aI19
aI7
aI4
aI14
aI10
aI18
aI8
aI9
aI17
aI12
aI13
aI11
aI6
aI2
aI8
aI32
aI10
aI7
aI0
aI3
aI52
aI2
aI2
aI20
aI13
aI13
aI9
aI4
aI7
aI23
aI29
aa(lp83
S'02632'
p84
aI33
aI13
aI9
aI8
aI3
aI0
aI13
aI10
aI6
aI3
aI1
aI13
aI6
aI4
aI2
aI7
aI4
aI7
aI8
aI5
aI9
aI9
aI6
aI10
aI3
aI5
aI5
aI5
aI13
aI8
aI2
aI1
aI0
aI28
aI3
aI1
aI11
aI14
aI2
aI4
aI2
aI2
aI26
aI5
aa(lp85
S'02633'
p86
aI76
aI25
aI27
aI14
aI9
aI1
aI31
aI22
aI13
aI7
aI3
aI18
aI24
aI18
aI10
aI6
aI4
aI12
aI29
aI20
aI11
aI8
aI19
aI28
aI14
aI7
aI6
aI17
aI43
aI8
aI1
aI1
aI3
aI66
aI3
aI3
aI22
aI28
aI15
aI6
aI4
aI20
aI46
aI9
aa(lp87
S'10020'
p88
aI55
aI10
aI23
aI13
aI8
aI1
aI8
aI22
aI13
aI11
aI1
aI5
aI23
aI18
aI8
aI1
aI8
aI8
aI17
aI13
aI8
aI10
aI17
aI22
aI5
aI0
aI3
aI12
aI34
aI6
aI0
aI0
aI1
aI49
aI4
aI1
aI7
aI15
aI15
aI16
aI2
aI30
aI9
aI16
aa(lp89
S'10022'
p90
aI119
aI17
aI63
aI25
aI12
aI1
aI19
aI51
aI33
aI10
aI5
aI25
aI46
aI28
aI16
aI3
aI8
aI19
aI45
aI24
aI22
aI19
aI53
aI32
aI13
aI1
aI2
aI26
aI71
aI16
aI3
aI0
aI1
aI101
aI14
aI1
aI16
aI50
aI29
aI19
aI1
aI59
aI23
aI36
aa(lp91
S'10024'
p92
aI16
aI1
aI5
aI1
aI6
aI2
aI3
aI1
aI3
aI6
aI2
aI6
aI4
aI4
aI2
aI0
aI2
aI1
aI7
aI4
aI1
aI3
aI0
aI9
aI2
aI0
aI5
aI1
aI8
aI0
aI0
aI1
aI0
aI14
aI0
aI0
aI2
aI3
aI6
aI4
aI0
aI6
aI5
aI5
aa(lp93
S'10031'
p94
aI33
aI11
aI10
aI8
aI2
aI2
aI13
aI10
aI5
aI3
aI1
aI5
aI10
aI15
aI0
aI3
aI3
aI11
aI15
aI2
aI2
aI9
aI14
aI6
aI3
aI1
aI0
aI2
aI21
aI6
aI4
aI0
aI1
aI25
aI4
aI3
aI7
aI16
aI5
aI3
aI2
aI17
aI5
aI11
aa(lp95
S'10033'
p96
aI101
aI48
aI39
aI8
aI4
aI2
aI34
aI43
aI13
aI8
aI2
aI16
aI41
aI25
aI13
aI5
aI13
aI21
aI28
aI25
aI13
aI26
aI47
aI16
aI10
aI0
aI1
aI15
aI43
aI34
aI7
aI0
aI5
aI89
aI5
aI1
aI20
aI52
aI12
aI11
aI5
aI81
aI4
aI15
aa(lp97
S'10034'
p98
aI85
aI20
aI34
aI19
aI11
aI1
aI19
aI33
aI18
aI13
aI2
aI21
aI29
aI21
aI10
aI4
aI8
aI18
aI35
aI15
aI8
aI10
aI30
aI31
aI10
aI4
aI2
aI15
aI52
aI14
aI2
aI0
aI1
aI75
aI7
aI1
aI16
aI30
aI22
aI11
aI6
aI67
aI3
aI14
aa(lp99
S'10036'
p100
aI36
aI18
aI11
aI6
aI0
aI1
aI10
aI13
aI10
aI2
aI0
aI16
aI13
aI4
aI3
aI0
aI7
aI15
aI9
aI3
aI1
aI8
aI10
aI10
aI8
aI0
aI0
aI1
aI14
aI11
aI10
aI0
aI1
aI23
aI7
aI4
aI8
aI13
aI11
aI2
aI2
aI16
aI8
aI11
aa(lp101
S'10044'
p102
aI9
aI3
aI5
aI1
aI0
aI0
aI7
aI2
aI0
aI0
aI0
aI4
aI3
aI0
aI2
aI0
aI2
aI5
aI2
aI0
aI0
aI7
aI2
aI0
aI0
aI0
aI0
aI0
aI7
aI2
aI0
aI0
aI0
aI9
aI0
aI0
aI5
aI3
aI0
aI1
aI0
aI5
aI1
aI3
aa(lp103
S'10050'
p104
aI51
aI8
aI10
aI16
aI11
aI6
aI6
aI14
aI17
aI12
aI2
aI2
aI10
aI5
aI22
aI12
aI0
aI10
aI11
aI17
aI13
aI2
aI14
aI17
aI9
aI9
aI1
aI5
aI34
aI6
aI5
aI0
aI0
aI43
aI6
aI2
aI3
aI11
aI11
aI16
aI10
aI42
aI0
aI9
aa(lp105
S'10052'
p106
aI9
aI2
aI3
aI1
aI3
aI0
aI3
aI3
aI1
aI1
aI1
aI1
aI2
aI3
aI1
aI2
aI2
aI2
aI3
aI2
aI0
aI1
aI3
aI2
aI2
aI1
aI1
aI3
aI4
aI1
aI0
aI1
aI1
aI7
aI0
aI0
aI1
aI2
aI2
aI4
aI0
aI7
aI1
aI1
aa(lp107
S'10054'
p108
aI11
aI6
aI4
aI1
aI0
aI0
aI8
aI2
aI0
aI1
aI0
aI1
aI6
aI2
aI2
aI0
aI1
aI1
aI5
aI4
aI0
aI5
aI4
aI1
aI1
aI0
aI0
aI4
aI4
aI1
aI2
aI0
aI0
aI6
aI2
aI3
aI4
aI6
aI1
aI0
aI0
aI6
aI2
aI3
aa(lp109
S'10102'
p110
aI49
aI35
aI10
aI1
aI2
aI1
aI27
aI14
aI3
aI4
aI1
aI29
aI15
aI3
aI0
aI1
aI12
aI13
aI11
aI6
aI7
aI26
aI13
aI5
aI4
aI1
aI2
aI11
aI18
aI11
aI7
aI0
aI6
aI36
aI6
aI1
aI25
aI11
aI6
aI5
aI2
aI49
aI0
aI0
aa(lp111
S'10209'
p112
aI7
aI5
aI1
aI1
aI0
aI0
aI5
aI2
aI0
aI0
aI0
aI3
aI1
aI1
aI2
aI0
aI1
aI0
aI6
aI0
aI0
aI4
aI1
aI0
aI1
aI1
aI0
aI0
aI3
aI1
aI3
aI0
aI0
aI7
aI0
aI0
aI4
aI2
aI0
aI1
aI0
aI0
aI7
aI0
aa(lp113
S'10303'
p114
aI29
aI15
aI9
aI5
aI0
aI0
aI10
aI15
aI4
aI0
aI0
aI4
aI10
aI7
aI7
aI1
aI10
aI13
aI5
aI1
aI0
aI16
aI6
aI6
aI1
aI0
aI2
aI3
aI17
aI6
aI1
aI0
aI4
aI24
aI1
aI0
aI16
aI8
aI2
aI3
aI0
aI10
aI9
aI10
aa(lp115
S'10347'
p116
aI5
aI1
aI1
aI1
aI2
aI0
aI1
aI0
aI2
aI1
aI1
aI0
aI0
aI2
aI1
aI2
aI1
aI1
aI2
aI1
aI0
aI0
aI2
aI1
aI1
aI1
aI0
aI0
aI5
aI0
aI0
aI0
aI0
aI5
aI0
aI0
aI1
aI2
aI0
aI2
aI0
aI4
aI0
aI1
aa(lp117
S'10420'
p118
aI8
aI3
aI3
aI2
aI0
aI0
aI7
aI1
aI0
aI0
aI0
aI2
aI3
aI3
aI0
aI0
aI3
aI3
aI1
aI1
aI0
aI7
aI0
aI1
aI0
aI0
aI0
aI0
aI2
aI6
aI0
aI0
aI0
aI8
aI0
aI0
aI6
aI2
aI0
aI0
aI0
aI7
aI1
aI0
aa(lp119
S'10900'
p120
aI7
aI2
aI1
aI2
aI1
aI1
aI2
aI2
aI2
aI0
aI0
aI0
aI1
aI5
aI0
aI1
aI1
aI1
aI2
aI2
aI1
aI2
aI0
aI3
aI1
aI1
aI0
aI2
aI4
aI1
aI0
aI1
aI0
aI5
aI0
aI1
aI2
aI1
aI1
aI2
aI1
aI1
aI3
aI3
aa(lp121
S'11000'
p122
aI43
aI7
aI18
aI12
aI3
aI2
aI8
aI13
aI14
aI8
aI0
aI7
aI8
aI14
aI12
aI2
aI4
aI10
aI12
aI10
aI7
aI5
aI17
aI12
aI7
aI2
aI2
aI9
aI23
aI5
aI4
aI0
aI2
aI39
aI2
aI0
aI6
aI15
aI11
aI9
aI2
aI11
aI21
aI11
aa(lp123
S'11010'
p124
aI48
aI9
aI16
aI12
aI10
aI1
aI17
aI16
aI11
aI2
aI1
aI1
aI20
aI18
aI7
aI2
aI1
aI8
aI22
aI12
aI5
aI6
aI21
aI10
aI7
aI3
aI0
aI9
aI22
aI17
aI0
aI0
aI2
aI42
aI3
aI1
aI9
aI16
aI9
aI13
aI1
aI4
aI43
aI1
aa(lp125
S'11031'
p126
aI32
aI14
aI12
aI5
aI1
aI0
aI18
aI10
aI3
aI0
aI0
aI5
aI6
aI12
aI4
aI4
aI4
aI6
aI7
aI5
aI8
aI7
aI11
aI12
aI1
aI0
aI0
aI7
aI13
aI7
aI4
aI1
aI2
aI18
aI8
aI2
aI5
aI14
aI8
aI2
aI1
aI4
aI17
aI11
aa(lp127
S'11112'
p128
aI11
aI2
aI4
aI5
aI0
aI0
aI3
aI4
aI3
aI1
aI0
aI3
aI4
aI4
aI0
aI0
aI1
aI1
aI3
aI3
aI3
aI4
aI3
aI4
aI0
aI0
aI0
aI3
aI7
aI1
aI0
aI0
aI0
aI11
aI0
aI0
aI3
aI6
aI2
aI0
aI0
aI1
aI7
aI3
aa(lp129
S'11121'
p130
aI32
aI7
aI9
aI8
aI6
aI2
aI7
aI9
aI9
aI7
aI0
aI1
aI10
aI7
aI10
aI4
aI0
aI7
aI6
aI9
aI10
aI4
aI8
aI11
aI9
aI0
aI1
aI6
aI21
aI4
aI0
aI0
aI0
aI26
aI3
aI2
aI5
aI11
aI7
aI5
aI4
aI16
aI9
aI7
aa(lp131
S'11141'
p132
aI39
aI14
aI17
aI7
aI1
aI0
aI7
aI18
aI9
aI4
aI0
aI8
aI18
aI11
aI1
aI1
aI5
aI8
aI17
aI8
aI1
aI13
aI19
aI6
aI0
aI1
aI0
aI13
aI20
aI5
aI1
aI0
aI1
aI28
aI7
aI1
aI11
aI20
aI5
aI1
aI2
aI30
aI3
aI6
aa(lp133
S'11203'
p134
aI10
aI6
aI2
aI1
aI1
aI0
aI3
aI1
aI3
aI2
aI1
aI2
aI1
aI6
aI1
aI0
aI1
aI1
aI5
aI1
aI2
aI3
aI4
aI2
aI1
aI0
aI4
aI3
aI3
aI0
aI0
aI0
aI0
aI9
aI0
aI0
aI6
aI2
aI2
aI0
aI0
aI1
aI7
aI2
aa(lp135
S'11305'
p136
aI23
aI2
aI8
aI7
aI4
aI1
aI1
aI7
aI8
aI3
aI3
aI0
aI4
aI8
aI8
aI2
aI0
aI1
aI10
aI5
aI6
aI1
aI3
aI7
aI9
aI2
aI1
aI0
aI11
aI7
aI3
aI0
aI2
aI14
aI2
aI2
aI0
aI5
aI7
aI7
aI3
aI9
aI7
aI6
aa(lp137
S'11311'
p138
aI33
aI17
aI11
aI2
aI2
aI1
aI10
aI14
aI3
aI4
aI1
aI13
aI12
aI4
aI1
aI2
aI5
aI4
aI15
aI5
aI3
aI8
aI16
aI6
aI1
aI1
aI0
aI8
aI18
aI6
aI0
aI0
aI0
aI30
aI0
aI2
aI16
aI10
aI4
aI0
aI2
aI22
aI5
aI5
aa(lp139
S'11318'
p140
aI26
aI8
aI13
aI3
aI1
aI0
aI4
aI13
aI4
aI3
aI0
aI2
aI10
aI8
aI4
aI0
aI0
aI4
aI9
aI7
aI4
aI1
aI13
aI8
aI2
aI0
aI0
aI1
aI18
aI5
aI0
aI0
aI1
aI21
aI1
aI1
aI5
aI10
aI8
aI1
aI0
aI4
aI13
aI7
aa(lp141
S'11341'
p142
aI41
aI3
aI14
aI9
aI10
aI5
aI2
aI9
aI9
aI12
aI9
aI1
aI12
aI8
aI13
aI7
aI1
aI2
aI6
aI18
aI13
aI0
aI9
aI12
aI9
aI11
aI0
aI4
aI25
aI7
aI5
aI0
aI0
aI24
aI10
aI6
aI1
aI8
aI6
aI13
aI12
aI1
aI31
aI9
aa(lp143
S'11342'
p144
aI17
aI4
aI6
aI5
aI1
aI1
aI3
aI8
aI2
aI3
aI1
aI2
aI3
aI6
aI5
aI1
aI0
aI1
aI4
aI4
aI8
aI1
aI4
aI6
aI5
aI1
aI0
aI3
aI10
aI4
aI0
aI0
aI0
aI11
aI4
aI1
aI3
aI3
aI4
aI3
aI3
aI2
aI8
aI7
aa(lp145
S'11343'
p146
aI31
aI4
aI7
aI7
aI7
aI6
aI4
aI5
aI5
aI8
aI9
aI3
aI4
aI6
aI7
aI11
aI2
aI1
aI6
aI5
aI16
aI4
aI1
aI6
aI9
aI11
aI1
aI3
aI12
aI12
aI3
aI0
aI1
aI25
aI4
aI1
aI3
aI6
aI5
aI4
aI13
aI1
aI24
aI6
aa(lp147
S'11411'
p148
aI30
aI3
aI11
aI7
aI8
aI1
aI5
aI6
aI9
aI6
aI3
aI5
aI12
aI7
aI3
aI2
aI1
aI5
aI9
aI9
aI5
aI1
aI9
aI11
aI5
aI3
aI0
aI1
aI19
aI7
aI2
aI0
aI1
aI22
aI2
aI4
aI3
aI7
aI8
aI10
aI1
aI3
aI17
aI9
aa(lp149
S'11450'
p150
aI5
aI0
aI0
aI3
aI2
aI0
aI0
aI2
aI2
aI1
aI0
aI0
aI0
aI2
aI1
aI2
aI0
aI0
aI1
aI1
aI3
aI0
aI0
aI4
aI1
aI0
aI0
aI2
aI3
aI0
aI0
aI0
aI1
aI4
aI0
aI0
aI0
aI0
aI3
aI1
aI1
aI0
aI5
aI0
aa(lp151
S'11462'
p152
aI18
aI1
aI2
aI11
aI3
aI1
aI0
aI6
aI8
aI2
aI2
aI1
aI1
aI6
aI6
aI4
aI0
aI1
aI6
aI3
aI8
aI0
aI8
aI5
aI3
aI2
aI4
aI2
aI11
aI1
aI0
aI0
aI1
aI17
aI0
aI0
aI1
aI4
aI7
aI6
aI0
aI0
aI12
aI5
aa(lp153
S'11463'
p154
aI27
aI14
aI9
aI3
aI0
aI1
aI18
aI6
aI1
aI1
aI1
aI4
aI9
aI7
aI3
aI4
aI2
aI3
aI14
aI3
aI5
aI5
aI13
aI5
aI4
aI0
aI0
aI1
aI7
aI8
aI11
aI0
aI0
aI26
aI0
aI1
aI9
aI11
aI3
aI3
aI1
aI1
aI24
aI2
aa(lp155
S'11561'
p156
aI21
aI3
aI13
aI4
aI0
aI1
aI5
aI11
aI3
aI1
aI1
aI1
aI9
aI8
aI3
aI0
aI2
aI5
aI8
aI6
aI0
aI1
aI4
aI10
aI5
aI1
aI0
aI3
aI8
aI8
aI2
aI0
aI0
aI20
aI1
aI0
aI4
aI6
aI4
aI7
aI0
aI2
aI19
aI0
aa(lp157
S'11562'
p158
aI34
aI4
aI18
aI7
aI5
aI0
aI9
aI10
aI9
aI1
aI5
aI6
aI12
aI10
aI5
aI1
aI1
aI10
aI12
aI7
aI4
aI6
aI12
aI10
aI3
aI3
aI0
aI6
aI18
aI6
aI4
aI0
aI1
aI21
aI12
aI0
aI4
aI8
aI11
aI9
aI2
aI15
aI8
aI11
aa(lp159
S'11691'
p160
aI21
aI4
aI10
aI4
aI3
aI0
aI8
aI7
aI3
aI1
aI1
aI1
aI5
aI7
aI3
aI4
aI0
aI8
aI5
aI4
aI3
aI2
aI6
aI4
aI4
aI4
aI0
aI1
aI10
aI6
aI3
aI0
aI0
aI18
aI2
aI0
aI2
aI8
aI6
aI1
aI3
aI8
aI6
aI6
aa(lp161
S'11990'
p162
aI14
aI2
aI4
aI6
aI2
aI0
aI6
aI1
aI2
aI3
aI2
aI1
aI4
aI4
aI2
aI3
aI0
aI0
aI5
aI1
aI8
aI0
aI3
aI7
aI1
aI3
aI0
aI0
aI10
aI2
aI1
aI0
aI0
aI10
aI3
aI0
aI2
aI5
aI3
aI3
aI1
aI0
aI11
aI3
aa(lp163
S'11993'
p164
aI17
aI3
aI4
aI7
aI3
aI0
aI5
aI6
aI5
aI1
aI0
aI3
aI6
aI4
aI4
aI0
aI0
aI4
aI6
aI6
aI1
aI4
aI4
aI6
aI3
aI0
aI0
aI3
aI10
aI4
aI0
aI0
aI1
aI16
aI0
aI0
aI1
aI9
aI4
aI3
aI0
aI14
aI1
aI2
aa(lp165
S'11994'
p166
aI11
aI9
aI1
aI1
aI0
aI0
aI11
aI0
aI0
aI0
aI0
aI8
aI2
aI1
aI0
aI0
aI5
aI2
aI4
aI0
aI0
aI8
aI3
aI0
aI0
aI0
aI0
aI1
aI7
aI3
aI0
aI0
aI0
aI11
aI0
aI0
aI9
aI1
aI0
aI1
aI0
aI1
aI9
aI1
aa(lp167
S'11995'
p168
aI15
aI1
aI3
aI5
aI3
aI3
aI2
aI8
aI3
aI1
aI1
aI2
aI1
aI3
aI4
aI5
aI1
aI0
aI4
aI7
aI3
aI3
aI2
aI1
aI5
aI4
aI2
aI1
aI10
aI1
aI1
aI0
aI2
aI13
aI0
aI0
aI2
aI1
aI6
aI4
aI2
aI11
aI2
aI2
aa(lp169
S'11996'
p170
aI10
aI1
aI3
aI3
aI1
aI2
aI4
aI0
aI2
aI3
aI1
aI1
aI1
aI3
aI2
aI3
aI0
aI2
aI4
aI1
aI3
aI0
aI1
aI4
aI2
aI3
aI0
aI0
aI7
aI2
aI1
aI0
aI1
aI9
aI0
aI0
aI1
aI2
aI3
aI2
aI2
aI3
aI6
aI1
aa(lp171
S'11997'
p172
aI19
aI13
aI3
aI1
aI1
aI1
aI13
aI3
aI2
aI1
aI0
aI13
aI3
aI0
aI1
aI2
aI3
aI3
aI5
aI1
aI7
aI12
aI1
aI4
aI1
aI1
aI0
aI1
aI15
aI2
aI0
aI0
aI1
aI17
aI0
aI0
aI11
aI3
aI2
aI2
aI1
aI0
aI13
aI6
aa(lp173
S'12000'
p174
aI43
aI22
aI13
aI4
aI1
aI3
aI21
aI15
aI3
aI0
aI4
aI7
aI16
aI11
aI5
aI3
aI12
aI13
aI13
aI5
aI0
aI13
aI19
aI7
aI2
aI2
aI3
aI11
aI24
aI5
aI0
aI2
aI4
aI35
aI2
aI0
aI23
aI16
aI1
aI0
aI3
aI42
aI0
aI1
aa(lp175
S'12003'
p176
aI24
aI8
aI9
aI3
aI3
aI1
aI15
aI5
aI2
aI0
aI2
aI9
aI11
aI1
aI2
aI1
aI3
aI5
aI13
aI2
aI1
aI11
aI7
aI2
aI4
aI0
aI0
aI1
aI7
aI13
aI3
aI0
aI0
aI22
aI1
aI0
aI11
aI8
aI2
aI2
aI1
aI2
aI18
aI4
aa(lp177
S'12102'
p178
aI21
aI12
aI5
aI3
aI0
aI1
aI13
aI6
aI0
aI2
aI0
aI6
aI9
aI3
aI2
aI0
aI7
aI8
aI2
aI3
aI1
aI12
aI7
aI2
aI0
aI0
aI0
aI1
aI13
aI4
aI3
aI0
aI0
aI19
aI2
aI0
aI13
aI6
aI1
aI0
aI1
aI13
aI1
aI7
aa(lp179
S'12134'
p180
aI16
aI4
aI5
aI5
aI2
aI0
aI2
aI9
aI3
aI2
aI0
aI3
aI4
aI6
aI2
aI1
aI1
aI6
aI5
aI3
aI1
aI3
aI6
aI3
aI3
aI1
aI0
aI2
aI12
aI1
aI1
aI0
aI1
aI15
aI0
aI0
aI1
aI6
aI8
aI0
aI1
aI13
aI1
aI2
aa(lp181
S'12139'
p182
aI43
aI6
aI17
aI8
aI10
aI2
aI4
aI12
aI17
aI8
aI2
aI7
aI15
aI9
aI10
aI2
aI7
aI12
aI10
aI9
aI4
aI9
aI12
aI14
aI5
aI2
aI2
aI8
aI24
aI8
aI1
aI2
aI4
aI35
aI1
aI0
aI6
aI21
aI7
aI9
aI0
aI5
aI23
aI15
aa(lp183
S'12202'
p184
aI55
aI10
aI20
aI20
aI4
aI1
aI12
aI24
aI15
aI4
aI0
aI3
aI10
aI23
aI15
aI4
aI7
aI14
aI22
aI12
aI0
aI13
aI25
aI13
aI1
aI3
aI2
aI4
aI33
aI16
aI0
aI0
aI1
aI52
aI1
aI0
aI10
aI25
aI11
aI7
aI1
aI11
aI21
aI23
aa(lp185
S'12203'
p186
aI8
aI7
aI1
aI0
aI0
aI0
aI8
aI0
aI0
aI0
aI0
aI4
aI2
aI2
aI0
aI0
aI3
aI2
aI2
aI1
aI0
aI5
aI2
aI1
aI0
aI0
aI0
aI0
aI4
aI4
aI0
aI0
aI0
aI8
aI0
aI0
aI7
aI1
aI0
aI0
aI0
aI5
aI3
aI0
aa(lp187
S'12205'
p188
aI31
aI3
aI19
aI6
aI3
aI0
aI5
aI18
aI6
aI2
aI0
aI8
aI12
aI8
aI3
aI0
aI4
aI4
aI5
aI17
aI1
aI4
aI11
aI12
aI4
aI0
aI0
aI4
aI22
aI4
aI1
aI0
aI1
aI28
aI2
aI0
aI4
aI18
aI6
aI3
aI0
aI9
aI15
aI7
aa(lp189
S'12210'
p190
aI21
aI14
aI4
aI3
aI0
aI0
aI18
aI2
aI1
aI0
aI0
aI8
aI9
aI3
aI1
aI0
aI9
aI8
aI4
aI0
aI0
aI11
aI8
aI2
aI0
aI0
aI1
aI0
aI10
aI10
aI0
aI0
aI0
aI20
aI1
aI0
aI14
aI3
aI2
aI2
aI0
aI0
aI16
aI5
aa(lp191
S'12320'
p192
aI33
aI15
aI11
aI6
aI0
aI1
aI13
aI7
aI10
aI2
aI0
aI8
aI6
aI10
aI3
aI6
aI6
aI7
aI10
aI6
aI4
aI9
aI11
aI6
aI5
aI2
aI0
aI1
aI17
aI11
aI4
aI0
aI2
aI25
aI6
aI0
aI9
aI12
aI7
aI2
aI3
aI12
aI15
aI6
aa(lp193
S'12500'
p194
aI12
aI4
aI7
aI1
aI0
aI0
aI3
aI2
aI5
aI2
aI0
aI3
aI4
aI2
aI2
aI1
aI0
aI3
aI6
aI1
aI2
aI2
aI7
aI0
aI3
aI0
aI1
aI5
aI6
aI0
aI0
aI0
aI0
aI11
aI0
aI0
aI4
aI5
aI2
aI0
aI1
aI1
aI10
aI1
aa(lp195
S'23561'
p196
aI8
aI5
aI3
aI0
aI0
aI0
aI6
aI2
aI0
aI0
aI0
aI1
aI3
aI3
aI1
aI0
aI1
aI3
aI3
aI1
aI0
aI3
aI4
aI1
aI0
aI0
aI0
aI1
aI6
aI0
aI1
aI0
aI0
aI7
aI1
aI0
aI6
aI2
aI0
aI0
aI0
aI2
aI6
aI0
aa(lp197
S'23711'
p198
aI11
aI1
aI3
aI4
aI2
aI1
aI1
aI3
aI4
aI2
aI1
aI1
aI2
aI8
aI0
aI0
aI0
aI3
aI3
aI3
aI2
aI1
aI2
aI5
aI2
aI1
aI0
aI2
aI5
aI4
aI0
aI0
aI1
aI8
aI2
aI0
aI1
aI4
aI4
aI1
aI1
aI9
aI1
aI1
aa(lp199
S'23732'
p200
aI32
aI5
aI13
aI6
aI4
aI4
aI4
aI11
aI8
aI4
aI5
aI3
aI8
aI10
aI6
aI5
aI2
aI7
aI8
aI11
aI4
aI5
aI13
aI8
aI3
aI3
aI0
aI5
aI17
aI5
aI5
aI0
aI0
aI22
aI9
aI1
aI5
aI8
aI9
aI8
aI2
aI21
aI8
aI3
aa(lp201
S'24001'
p202
aI34
aI15
aI16
aI1
aI2
aI0
aI8
aI15
aI7
aI3
aI1
aI8
aI11
aI8
aI4
aI3
aI3
aI7
aI13
aI7
aI4
aI10
aI15
aI8
aI0
aI1
aI0
aI3
aI13
aI13
aI5
aI0
aI0
aI19
aI11
aI4
aI11
aI14
aI3
aI6
aI0
aI8
aI16
aI10
aa(lp203
S'24002'
p204
aI12
aI2
aI6
aI3
aI1
aI0
aI5
aI6
aI1
aI0
aI0
aI1
aI7
aI3
aI1
aI0
aI0
aI0
aI2
aI5
aI5
aI3
aI4
aI4
aI1
aI0
aI0
aI3
aI8
aI1
aI0
aI0
aI2
aI8
aI2
aI0
aI1
aI6
aI4
aI1
aI0
aI11
aI0
aI1
aa(lp205
S'24005'
p206
aI21
aI4
aI11
aI2
aI4
aI0
aI12
aI4
aI5
aI0
aI0
aI1
aI4
aI6
aI8
aI2
aI1
aI11
aI6
aI2
aI1
aI9
aI8
aI3
aI1
aI0
aI0
aI8
aI11
aI1
aI0
aI0
aI5
aI14
aI1
aI0
aI7
aI11
aI2
aI1
aI0
aI3
aI16
aI2
aa(lp207
S'25102'
p208
aI5
aI1
aI3
aI0
aI1
aI0
aI3
aI1
aI0
aI0
aI1
aI0
aI2
aI2
aI1
aI0
aI0
aI0
aI5
aI0
aI0
aI0
aI3
aI1
aI1
aI0
aI0
aI0
aI2
aI3
aI0
aI0
aI0
aI5
aI0
aI0
aI3
aI1
aI0
aI0
aI1
aI1
aI3
aI1
aa(lp209
S'25104'
p210
aI9
aI3
aI4
aI1
aI1
aI0
aI3
aI2
aI3
aI1
aI0
aI1
aI5
aI2
aI1
aI0
aI0
aI4
aI2
aI2
aI1
aI2
aI2
aI1
aI3
aI1
aI0
aI6
aI3
aI0
aI0
aI0
aI0
aI9
aI0
aI0
aI2
aI5
aI1
aI1
aI0
aI6
aI2
aI1
aa(lp211
S'26000'
p212
aI70
aI18
aI31
aI18
aI2
aI1
aI14
aI31
aI18
aI6
aI1
aI14
aI35
aI18
aI3
aI0
aI7
aI22
aI26
aI12
aI3
aI16
aI26
aI20
aI5
aI3
aI3
aI14
aI43
aI9
aI1
aI1
aI3
aI59
aI6
aI0
aI15
aI36
aI13
aI6
aI0
aI20
aI29
aI21
aa(lp213
S'26003'
p214
aI6
aI1
aI4
aI1
aI0
aI0
aI6
aI0
aI0
aI0
aI0
aI2
aI3
aI0
aI1
aI0
aI1
aI0
aI5
aI0
aI0
aI2
aI2
aI2
aI0
aI0
aI0
aI0
aI0
aI5
aI1
aI0
aI1
aI4
aI1
aI0
aI0
aI4
aI0
aI2
aI0
aI0
aI6
aI0
aa(lp215
S'26006'
p216
aI16
aI3
aI11
aI2
aI0
aI0
aI0
aI15
aI1
aI0
aI0
aI1
aI10
aI5
aI0
aI0
aI2
aI6
aI5
aI2
aI0
aI4
aI8
aI3
aI0
aI0
aI0
aI2
aI10
aI2
aI1
aI0
aI1
aI13
aI1
aI0
aI0
aI9
aI5
aI0
aI0
aI4
aI6
aI6
aa(lp217
S'26008'
p218
aI55
aI18
aI25
aI7
aI3
aI2
aI35
aI11
aI6
aI1
aI2
aI16
aI19
aI17
aI1
aI2
aI14
aI28
aI9
aI4
aI0
aI18
aI19
aI11
aI6
aI1
aI2
aI10
aI33
aI7
aI3
aI0
aI2
aI48
aI3
aI1
aI23
aI22
aI5
aI3
aI2
aI6
aI33
aI16
aa(lp219
S'26009'
p220
aI15
aI9
aI4
aI1
aI1
aI0
aI12
aI2
aI0
aI0
aI1
aI8
aI4
aI2
aI1
aI0
aI7
aI6
aI1
aI0
aI1
aI8
aI4
aI2
aI0
aI1
aI2
aI1
aI9
aI1
aI2
aI0
aI0
aI15
aI0
aI0
aI8
aI4
aI0
aI2
aI1
aI0
aI14
aI1
aa(lp221
S'26010'
p222
aI11
aI5
aI5
aI1
aI0
aI0
aI9
aI0
aI1
aI1
aI0
aI1
aI4
aI5
aI1
aI0
aI5
aI2
aI3
aI1
aI0
aI3
aI5
aI3
aI0
aI0
aI0
aI2
aI6
aI3
aI0
aI0
aI0
aI11
aI0
aI0
aI6
aI3
aI2
aI0
aI0
aI0
aI11
aI0
aa(lp223
S'26027'
p224
aI89
aI9
aI19
aI33
aI18
aI10
aI7
aI22
aI32
aI18
aI10
aI14
aI18
aI34
aI17
aI5
aI2
aI8
aI37
aI17
aI24
aI4
aI20
aI41
aI13
aI9
aI12
aI26
aI45
aI5
aI0
aI0
aI9
aI72
aI6
aI1
aI5
aI26
aI29
aI15
aI13
aI23
aI32
aI32
aa(lp225
S'26050'
p226
aI128
aI21
aI41
aI42
aI17
aI7
aI16
aI48
aI34
aI21
aI8
aI14
aI38
aI35
aI20
aI19
aI8
aI32
aI42
aI27
aI17
aI12
aI45
aI42
aI21
aI6
aI7
aI31
aI67
aI17
aI3
aI3
aI8
aI106
aI10
aI0
aI14
aI51
aI35
aI18
aI9
aI39
aI56
aI32
aa(lp227
S'26122'
p228
aI8
aI4
aI4
aI0
aI0
aI0
aI8
aI0
aI0
aI0
aI0
aI1
aI6
aI1
aI0
aI0
aI4
aI4
aI0
aI0
aI0
aI8
aI0
aI0
aI0
aI0
aI0
aI0
aI8
aI0
aI0
aI0
aI1
aI7
aI0
aI0
aI8
aI0
aI0
aI0
aI0
aI1
aI4
aI3
aa(lp229
S'26124'
p230
aI35
aI14
aI14
aI6
aI1
aI0
aI12
aI17
aI5
aI0
aI1
aI8
aI16
aI7
aI3
aI1
aI7
aI11
aI13
aI4
aI0
aI12
aI13
aI9
aI1
aI0
aI1
aI9
aI21
aI3
aI1
aI0
aI0
aI31
aI3
aI0
aI13
aI14
aI6
aI1
aI1
aI28
aI1
aI6
aa(lp231
S'26201'
p232
aI21
aI8
aI10
aI2
aI1
aI0
aI8
aI7
aI5
aI1
aI0
aI7
aI6
aI6
aI2
aI0
aI5
aI7
aI5
aI4
aI0
aI9
aI6
aI5
aI1
aI0
aI0
aI1
aI17
aI3
aI0
aI0
aI0
aI19
aI2
aI0
aI10
aI5
aI4
aI2
aI0
aI13
aI5
aI3
aa(lp233
S'26202'
p234
aI22
aI5
aI7
aI4
aI4
aI2
aI6
aI11
aI2
aI2
aI1
aI5
aI5
aI6
aI4
aI2
aI4
aI4
aI8
aI3
aI3
aI3
aI5
aI7
aI5
aI2
aI0
aI3
aI13
aI3
aI3
aI0
aI0
aI12
aI9
aI1
aI1
aI7
aI8
aI4
aI2
aI7
aI9
aI6
aa(lp235
S'26222'
p236
aI24
aI14
aI6
aI3
aI1
aI0
aI12
aI9
aI2
aI1
aI0
aI10
aI11
aI1
aI2
aI0
aI3
aI8
aI10
aI3
aI0
aI9
aI13
aI1
aI1
aI0
aI0
aI1
aI20
aI3
aI0
aI0
aI0
aI22
aI2
aI0
aI14
aI7
aI3
aI0
aI0
aI22
aI1
aI1
aa(lp237
S'26225'
p238
aI8
aI6
aI2
aI0
aI0
aI0
aI7
aI1
aI0
aI0
aI0
aI5
aI3
aI0
aI0
aI0
aI7
aI1
aI0
aI0
aI0
aI5
aI2
aI0
aI1
aI0
aI0
aI0
aI5
aI3
aI0
aI0
aI0
aI8
aI0
aI0
aI6
aI2
aI0
aI0
aI0
aI3
aI5
aI0
aa(lp239
S'26245'
p240
aI6
aI4
aI1
aI1
aI0
aI0
aI5
aI1
aI0
aI0
aI0
aI3
aI3
aI0
aI0
aI0
aI0
aI2
aI4
aI0
aI0
aI4
aI2
aI0
aI0
aI0
aI0
aI1
aI4
aI0
aI1
aI0
aI2
aI4
aI0
aI0
aI4
aI2
aI0
aI0
aI0
aI0
aI6
aI0
aa(lp241
S'26261'
p242
aI5
aI2
aI2
aI1
aI0
aI0
aI2
aI1
aI2
aI0
aI0
aI2
aI2
aI1
aI0
aI0
aI1
aI1
aI1
aI2
aI0
aI1
aI2
aI1
aI1
aI0
aI0
aI0
aI3
aI2
aI0
aI1
aI0
aI4
aI0
aI0
aI2
aI2
aI0
aI1
aI0
aI0
aI2
aI3
aa(lp243
S'26299'
p244
aI10
aI7
aI2
aI1
aI0
aI0
aI7
aI2
aI1
aI0
aI0
aI3
aI3
aI2
aI2
aI0
aI5
aI3
aI1
aI0
aI1
aI6
aI2
aI1
aI1
aI0
aI1
aI2
aI5
aI2
aI0
aI0
aI0
aI5
aI5
aI0
aI4
aI3
aI2
aI0
aI0
aI1
aI6
aI3
aa(lp245
S'26301'
p246
aI29
aI7
aI12
aI9
aI1
aI0
aI15
aI11
aI2
aI1
aI0
aI6
aI5
aI14
aI4
aI0
aI8
aI8
aI9
aI3
aI0
aI9
aI11
aI6
aI0
aI1
aI0
aI4
aI15
aI7
aI2
aI0
aI1
aI24
aI2
aI1
aI4
aI11
aI11
aI1
aI0
aI3
aI17
aI9
aa(lp247
S'26400'
p248
aI90
aI53
aI29
aI4
aI2
aI2
aI43
aI32
aI11
aI4
aI0
aI46
aI28
aI12
aI2
aI2
aI25
aI27
aI21
aI15
aI2
aI46
aI24
aI14
aI3
aI3
aI1
aI4
aI44
aI29
aI11
aI1
aI2
aI60
aI18
aI9
aI36
aI35
aI9
aI9
aI1
aI7
aI55
aI27
aa(lp249
S'26407'
p250
aI5
aI4
aI1
aI0
aI0
aI0
aI5
aI0
aI0
aI0
aI0
aI3
aI2
aI0
aI0
aI0
aI3
aI1
aI1
aI0
aI0
aI5
aI0
aI0
aI0
aI0
aI0
aI1
aI3
aI1
aI0
aI0
aI1
aI3
aI1
aI0
aI4
aI1
aI0
aI0
aI0
aI1
aI4
aI0
aa(lp251
S'26411'
p252
aI54
aI37
aI16
aI1
aI0
aI0
aI30
aI20
aI2
aI1
aI0
aI30
aI13
aI7
aI3
aI0
aI21
aI18
aI13
aI2
aI0
aI32
aI14
aI7
aI1
aI0
aI1
aI7
aI38
aI5
aI3
aI0
aI1
aI45
aI7
aI1
aI32
aI16
aI5
aI0
aI0
aI13
aI27
aI14
aa(lp253
S'26426'
p254
aI43
aI16
aI17
aI5
aI5
aI0
aI11
aI18
aI8
aI6
aI0
aI17
aI15
aI10
aI1
aI0
aI8
aI8
aI16
aI5
aI6
aI12
aI17
aI12
aI2
aI0
aI2
aI3
aI27
aI7
aI4
aI3
aI4
aI30
aI5
aI1
aI15
aI15
aI7
aI6
aI0
aI6
aI21
aI16
aa(lp255
S'26428'
p256
aI17
aI6
aI6
aI4
aI1
aI0
aI7
aI7
aI2
aI0
aI1
aI4
aI7
aI5
aI1
aI0
aI4
aI4
aI7
aI1
aI1
aI6
aI4
aI5
aI1
aI1
aI0
aI0
aI13
aI4
aI0
aI0
aI0
aI15
aI2
aI0
aI5
aI6
aI5
aI1
aI0
aI10
aI3
aI4
aa(lp257
S'26499'
p258
aI9
aI7
aI1
aI1
aI0
aI0
aI6
aI1
aI2
aI0
aI0
aI3
aI4
aI1
aI0
aI0
aI2
aI4
aI1
aI1
aI1
aI4
aI1
aI3
aI1
aI0
aI0
aI0
aI6
aI2
aI0
aI0
aI0
aI8
aI1
aI0
aI4
aI5
aI0
aI0
aI0
aI1
aI7
aI0
aa(lp259
S'27002'
p260
aI95
aI14
aI43
aI25
aI12
aI1
aI11
aI36
aI30
aI14
aI3
aI29
aI41
aI15
aI9
aI0
aI9
aI20
aI38
aI16
aI11
aI12
aI39
aI29
aI12
aI1
aI5
aI24
aI46
aI16
aI3
aI2
aI8
aI68
aI9
aI6
aI18
aI44
aI19
aI10
aI0
aI43
aI29
aI21
aa(lp261
S'27004'
p262
aI41
aI7
aI8
aI15
aI10
aI1
aI9
aI12
aI8
aI11
aI1
aI4
aI12
aI16
aI7
aI2
aI1
aI8
aI13
aI15
aI4
aI5
aI5
aI6
aI15
aI10
aI7
aI13
aI19
aI1
aI1
aI0
aI5
aI33
aI0
aI1
aI3
aI10
aI13
aI11
aI4
aI20
aI13
aI8
aa(lp263
S'27007'
p264
aI37
aI11
aI14
aI10
aI2
aI0
aI15
aI19
aI2
aI1
aI0
aI14
aI14
aI9
aI0
aI0
aI6
aI13
aI13
aI3
aI2
aI14
aI17
aI4
aI2
aI0
aI2
aI9
aI22
aI4
aI0
aI0
aI1
aI33
aI3
aI0
aI11
aI18
aI4
aI3
aI1
aI23
aI3
aI11
aa(lp265
S'27008'
p266
aI26
aI8
aI12
aI6
aI0
aI0
aI9
aI13
aI3
aI1
aI0
aI8
aI15
aI3
aI0
aI0
aI3
aI8
aI7
aI6
aI2
aI3
aI17
aI3
aI3
aI0
aI0
aI6
aI18
aI1
aI1
aI0
aI1
aI25
aI0
aI0
aI8
aI14
aI2
aI1
aI1
aI8
aI11
aI7
aa(lp267
S'27015'
p268
aI13
aI6
aI6
aI0
aI1
aI0
aI6
aI4
aI3
aI0
aI0
aI1
aI2
aI6
aI3
aI1
aI1
aI2
aI5
aI2
aI3
aI2
aI6
aI3
aI1
aI1
aI0
aI0
aI8
aI4
aI1
aI0
aI0
aI13
aI0
aI0
aI3
aI5
aI2
aI3
aI0
aI0
aI11
aI2
aa(lp269
S'27022'
p270
aI79
aI13
aI33
aI18
aI13
aI2
aI9
aI29
aI29
aI9
aI3
aI15
aI18
aI20
aI15
aI11
aI3
aI14
aI33
aI18
aI11
aI8
aI24
aI30
aI11
aI6
aI4
aI11
aI52
aI10
aI2
aI1
aI3
aI55
aI12
aI8
aI10
aI24
aI23
aI16
aI6
aI34
aI26
aI17
aa(lp271
S'27023'
p272
aI60
aI15
aI31
aI7
aI4
aI3
aI34
aI19
aI3
aI1
aI3
aI15
aI28
aI11
aI5
aI1
aI10
aI16
aI18
aI6
aI8
aI16
aI21
aI13
aI8
aI2
aI1
aI11
aI25
aI20
aI3
aI1
aI1
aI52
aI4
aI2
aI9
aI29
aI12
aI7
aI3
aI24
aI19
aI17
aa(lp273
S'27026'
p274
aI46
aI14
aI18
aI11
aI2
aI1
aI6
aI19
aI13
aI7
aI0
aI11
aI15
aI15
aI4
aI1
aI2
aI9
aI18
aI14
aI2
aI6
aI19
aI15
aI4
aI1
aI1
aI5
aI25
aI11
aI4
aI0
aI1
aI26
aI15
aI3
aI8
aI21
aI8
aI7
aI2
aI32
aI6
aI8
aa(lp275
S'27027'
p276
aI30
aI14
aI13
aI3
aI0
aI0
aI21
aI9
aI0
aI0
aI0
aI14
aI10
aI5
aI1
aI0
aI9
aI12
aI6
aI3
aI0
aI16
aI11
aI2
aI1
aI0
aI0
aI1
aI9
aI10
aI10
aI0
aI0
aI24
aI6
aI0
aI15
aI11
aI2
aI1
aI1
aI4
aI20
aI6
aa(lp277
S'27034'
p278
aI33
aI9
aI14
aI7
aI2
aI1
aI7
aI12
aI11
aI2
aI1
aI2
aI3
aI6
aI9
aI13
aI0
aI7
aI7
aI10
aI9
aI2
aI12
aI11
aI3
aI4
aI0
aI3
aI24
aI4
aI1
aI0
aI0
aI31
aI1
aI0
aI5
aI11
aI9
aI4
aI4
aI21
aI2
aI10
aa(lp279
S'27035'
p280
aI32
aI19
aI11
aI0
aI2
aI0
aI29
aI2
aI0
aI0
aI1
aI10
aI13
aI7
aI1
aI1
aI11
aI7
aI9
aI3
aI2
aI20
aI7
aI2
aI0
aI3
aI0
aI3
aI22
aI6
aI1
aI0
aI1
aI30
aI1
aI0
aI19
aI10
aI1
aI1
aI1
aI5
aI24
aI3
aa(lp281
S'27040'
p282
aI11
aI4
aI4
aI2
aI1
aI0
aI6
aI3
aI0
aI1
aI1
aI2
aI4
aI3
aI2
aI0
aI1
aI4
aI2
aI4
aI0
aI5
aI3
aI0
aI2
aI0
aI0
aI5
aI5
aI1
aI0
aI0
aI0
aI10
aI1
aI0
aI4
aI3
aI3
aI1
aI0
aI5
aI1
aI4
aa(lp283
S'27042'
p284
aI32
aI5
aI6
aI7
aI10
aI4
aI4
aI12
aI7
aI5
aI4
aI4
aI5
aI9
aI9
aI5
aI1
aI2
aI7
aI11
aI11
aI2
aI7
aI7
aI12
aI4
aI0
aI6
aI15
aI5
aI6
aI0
aI2
aI17
aI6
aI7
aI2
aI7
aI9
aI8
aI5
aI0
aI29
aI3
aa(lp285
S'27051'
p286
aI37
aI14
aI11
aI9
aI3
aI0
aI21
aI8
aI6
aI1
aI1
aI16
aI13
aI6
aI2
aI0
aI3
aI12
aI11
aI8
aI3
aI16
aI15
aI5
aI1
aI0
aI1
aI10
aI23
aI2
aI1
aI0
aI0
aI36
aI1
aI0
aI18
aI12
aI6
aI1
aI0
aI30
aI0
aI7
aa(lp287
S'27461'
p288
aI21
aI14
aI6
aI1
aI0
aI0
aI19
aI0
aI2
aI0
aI0
aI10
aI6
aI4
aI0
aI1
aI2
aI10
aI3
aI5
aI1
aI12
aI6
aI3
aI0
aI0
aI0
aI3
aI15
aI2
aI1
aI0
aI0
aI19
aI1
aI0
aI17
aI3
aI1
aI0
aI0
aI19
aI0
aI2
aa(lp289
S'27611'
p290
aI56
aI14
aI23
aI10
aI8
aI1
aI18
aI18
aI14
aI5
aI1
aI9
aI21
aI15
aI11
aI0
aI4
aI14
aI29
aI7
aI2
aI12
aI24
aI11
aI7
aI2
aI4
aI18
aI32
aI1
aI1
aI1
aI5
aI49
aI1
aI0
aI11
aI25
aI11
aI8
aI1
aI42
aI4
aI10
aa(lp291
S'27633'
p292
aI15
aI3
aI5
aI6
aI0
aI1
aI3
aI8
aI4
aI0
aI0
aI2
aI4
aI6
aI3
aI0
aI4
aI2
aI4
aI4
aI1
aI5
aI4
aI5
aI1
aI0
aI0
aI1
aI13
aI1
aI0
aI0
aI0
aI14
aI1
aI0
aI2
aI2
aI7
aI3
aI1
aI4
aI8
aI3
aa(lp293
S'28001'
p294
aI48
aI5
aI17
aI12
aI12
aI2
aI11
aI19
aI12
aI5
aI1
aI2
aI10
aI18
aI16
aI2
aI6
aI17
aI14
aI8
aI3
aI6
aI20
aI10
aI9
aI3
aI2
aI18
aI25
aI3
aI0
aI1
aI3
aI40
aI2
aI1
aI7
aI19
aI10
aI9
aI3
aI15
aI20
aI13
aa(lp295
S'28020'
p296
aI24
aI5
aI6
aI5
aI6
aI2
aI5
aI5
aI7
aI5
aI2
aI3
aI9
aI5
aI4
aI3
aI2
aI6
aI8
aI4
aI4
aI6
aI7
aI7
aI2
aI2
aI0
aI2
aI12
aI7
aI3
aI0
aI0
aI22
aI2
aI0
aI6
aI3
aI6
aI4
aI5
aI17
aI1
aI6
aa(lp297
S'28025'
p298
aI29
aI4
aI11
aI3
aI7
aI4
aI6
aI8
aI5
aI9
aI1
aI3
aI8
aI4
aI11
aI3
aI3
aI8
aI7
aI6
aI5
aI5
aI9
aI5
aI5
aI5
aI0
aI0
aI17
aI10
aI2
aI0
aI1
aI24
aI4
aI0
aI2
aI10
aI7
aI4
aI6
aI19
aI5
aI5
aa(lp299
S'28121'
p300
aI11
aI5
aI4
aI2
aI0
aI0
aI8
aI2
aI1
aI0
aI0
aI2
aI3
aI3
aI3
aI0
aI6
aI4
aI1
aI0
aI0
aI3
aI4
aI4
aI0
aI0
aI0
aI3
aI2
aI5
aI1
aI1
aI0
aI7
aI3
aI0
aI5
aI5
aI1
aI0
aI0
aI2
aI7
aI2
aa(lp301
S'28125'
p302
aI7
aI2
aI5
aI0
aI0
aI0
aI5
aI1
aI1
aI0
aI0
aI0
aI3
aI2
aI1
aI1
aI3
aI2
aI2
aI0
aI0
aI1
aI4
aI2
aI0
aI0
aI0
aI0
aI0
aI3
aI4
aI0
aI0
aI3
aI3
aI1
aI2
aI2
aI2
aI1
aI0
aI1
aI5
aI1
aa(lp303
S'28140'
p304
aI24
aI18
aI6
aI0
aI0
aI0
aI17
aI7
aI0
aI0
aI0
aI14
aI10
aI0
aI0
aI0
aI14
aI7
aI3
aI0
aI0
aI15
aI6
aI2
aI0
aI0
aI0
aI1
aI14
aI7
aI1
aI0
aI0
aI21
aI2
aI0
aI14
aI9
aI0
aI0
aI0
aI14
aI2
aI7
aa(lp305
S'28150'
p306
aI29
aI3
aI8
aI11
aI5
aI2
aI5
aI5
aI9
aI7
aI3
aI2
aI3
aI9
aI14
aI1
aI0
aI5
aI9
aI10
aI5
aI3
aI5
aI9
aI10
aI2
aI0
aI4
aI10
aI10
aI5
aI1
aI0
aI21
aI6
aI1
aI2
aI9
aI10
aI4
aI4
aI6
aI8
aI15
aa(lp307
S'28160'
p308
aI18
aI11
aI6
aI0
aI0
aI0
aI7
aI9
aI1
aI0
aI0
aI6
aI5
aI4
aI3
aI0
aI6
aI7
aI5
aI0
aI0
aI8
aI6
aI3
aI1
aI0
aI0
aI0
aI5
aI8
aI5
aI0
aI0
aI14
aI4
aI0
aI8
aI8
aI2
aI0
aI0
aI3
aI6
aI9
aa(lp309
S'28221'
p310
aI15
aI6
aI4
aI4
aI1
aI0
aI8
aI4
aI2
aI0
aI1
aI5
aI5
aI3
aI1
aI1
aI2
aI7
aI2
aI3
aI1
aI6
aI6
aI0
aI0
aI3
aI0
aI2
aI12
aI1
aI0
aI0
aI0
aI15
aI0
aI0
aI6
aI6
aI0
aI3
aI0
aI3
aI8
aI4
aa(lp311
S'30010'
p312
aI24
aI10
aI8
aI5
aI1
aI0
aI17
aI4
aI2
aI1
aI0
aI4
aI8
aI9
aI3
aI0
aI2
aI3
aI12
aI6
aI1
aI7
aI12
aI2
aI2
aI1
aI0
aI2
aI16
aI5
aI1
aI0
aI1
aI22
aI1
aI0
aI12
aI8
aI3
aI1
aI0
aI2
aI15
aI7
aa(lp313
S'30020'
p314
aI31
aI2
aI11
aI8
aI8
aI2
aI10
aI9
aI4
aI7
aI1
aI1
aI7
aI10
aI7
aI6
aI1
aI8
aI9
aI5
aI7
aI0
aI7
aI10
aI9
aI5
aI0
aI15
aI14
aI2
aI0
aI1
aI1
aI26
aI3
aI0
aI1
aI10
aI8
aI9
aI3
aI11
aI7
aI13
aa(lp315
S'30100'
p316
aI17
aI4
aI4
aI7
aI2
aI0
aI10
aI3
aI3
aI1
aI0
aI3
aI5
aI9
aI0
aI0
aI3
aI3
aI7
aI3
aI1
aI5
aI6
aI3
aI3
aI0
aI1
aI4
aI6
aI4
aI2
aI0
aI2
aI14
aI1
aI0
aI7
aI7
aI3
aI0
aI0
aI2
aI10
aI5
aa(lp317
S'30110'
p318
aI9
aI7
aI2
aI0
aI0
aI0
aI7
aI2
aI0
aI0
aI0
aI2
aI3
aI4
aI0
aI0
aI3
aI1
aI5
aI0
aI0
aI4
aI2
aI3
aI0
aI0
aI0
aI0
aI6
aI2
aI1
aI0
aI0
aI9
aI0
aI0
aI5
aI4
aI0
aI0
aI0
aI0
aI5
aI4
aa(lp319
S'30120'
p320
aI27
aI12
aI13
aI1
aI0
aI1
aI11
aI10
aI4
aI2
aI0
aI7
aI12
aI6
aI2
aI0
aI7
aI8
aI7
aI1
aI3
aI13
aI8
aI5
aI1
aI0
aI0
aI3
aI23
aI0
aI1
aI1
aI1
aI23
aI2
aI0
aI14
aI10
aI1
aI1
aI1
aI19
aI0
aI8
aa(lp321
S'30130'
p322
aI14
aI5
aI6
aI1
aI1
aI1
aI6
aI4
aI1
aI3
aI0
aI6
aI3
aI4
aI1
aI0
aI4
aI2
aI5
aI2
aI1
aI4
aI2
aI6
aI2
aI0
aI0
aI0
aI11
aI3
aI0
aI0
aI0
aI14
aI0
aI0
aI5
aI6
aI1
aI2
aI0
aI8
aI2
aI4
aa(lp323
S'30140'
p324
aI16
aI6
aI7
aI3
aI0
aI0
aI2
aI4
aI4
aI5
aI1
aI0
aI7
aI7
aI2
aI0
aI0
aI1
aI8
aI4
aI2
aI1
aI8
aI3
aI2
aI1
aI0
aI8
aI5
aI3
aI0
aI0
aI0
aI13
aI2
aI1
aI3
aI6
aI5
aI2
aI0
aI2
aI4
aI10
aa(lp325
S'30150'
p326
aI16
aI4
aI7
aI1
aI3
aI1
aI4
aI5
aI3
aI3
aI1
aI2
aI4
aI5
aI2
aI3
aI3
aI7
aI4
aI1
aI1
aI4
aI4
aI1
aI3
aI4
aI1
aI3
aI8
aI3
aI1
aI1
aI1
aI14
aI0
aI0
aI5
aI1
aI3
aI2
aI5
aI6
aI5
aI5
aa(lp327
S'30160'
p328
aI15
aI5
aI6
aI2
aI2
aI0
aI6
aI4
aI3
aI1
aI1
aI5
aI4
aI4
aI2
aI0
aI5
aI8
aI2
aI0
aI0
aI5
aI7
aI3
aI0
aI0
aI0
aI5
aI10
aI0
aI0
aI0
aI0
aI15
aI0
aI0
aI7
aI5
aI1
aI2
aI0
aI12
aI0
aI2
aa(lp329
S'31001'
p330
aI79
aI22
aI37
aI15
aI3
aI1
aI16
aI35
aI21
aI4
aI2
aI18
aI32
aI18
aI8
aI1
aI16
aI22
aI25
aI10
aI2
aI17
aI30
aI24
aI4
aI2
aI2
aI14
aI53
aI7
aI1
aI0
aI3
aI71
aI1
aI1
aI21
aI35
aI17
aI3
aI0
aI52
aI3
aI22
aa(lp331
S'31003'
p332
aI19
aI4
aI8
aI5
aI2
aI0
aI1
aI11
aI6
aI1
aI0
aI3
aI10
aI4
aI1
aI1
aI6
aI6
aI3
aI4
aI0
aI1
aI13
aI3
aI2
aI0
aI0
aI5
aI10
aI3
aI1
aI0
aI0
aI12
aI3
aI4
aI3
aI9
aI2
aI4
aI1
aI2
aI3
aI14
aa(lp333
S'31013'
p334
aI45
aI20
aI17
aI2
aI4
aI2
aI34
aI5
aI2
aI1
aI3
aI12
aI17
aI9
aI6
aI1
aI6
aI14
aI13
aI10
aI2
aI13
aI17
aI10
aI4
aI1
aI1
aI10
aI28
aI6
aI0
aI0
aI3
aI38
aI4
aI0
aI23
aI13
aI2
aI3
aI4
aI9
aI29
aI7
aa(lp335
S'31015'
p336
aI14
aI7
aI4
aI3
aI0
aI0
aI8
aI3
aI3
aI0
aI0
aI1
aI0
aI7
aI2
aI4
aI2
aI3
aI5
aI0
aI4
aI2
aI3
aI7
aI1
aI1
aI0
aI1
aI4
aI6
aI3
aI0
aI0
aI13
aI1
aI0
aI4
aI3
aI5
aI1
aI1
aI4
aI5
aI5
aa(lp337
S'31300'
p338
aI12
aI2
aI5
aI5
aI0
aI0
aI4
aI2
aI3
aI3
aI0
aI2
aI5
aI3
aI2
aI0
aI3
aI4
aI3
aI2
aI0
aI2
aI6
aI2
aI1
aI1
aI0
aI1
aI8
aI3
aI0
aI0
aI0
aI12
aI0
aI0
aI3
aI3
aI5
aI1
aI0
aI2
aI4
aI6
aa(lp339
S'31342'
p340
aI7
aI2
aI2
aI3
aI0
aI0
aI5
aI1
aI0
aI0
aI1
aI3
aI2
aI1
aI1
aI0
aI1
aI1
aI3
aI2
aI0
aI4
aI0
aI2
aI0
aI0
aI0
aI3
aI4
aI0
aI0
aI0
aI0
aI7
aI0
aI0
aI2
aI4
aI1
aI0
aI0
aI0
aI4
aI3
aa(lp341
S'31351'
p342
aI24
aI16
aI5
aI2
aI1
aI0
aI16
aI4
aI2
aI2
aI0
aI6
aI8
aI9
aI1
aI0
aI5
aI10
aI7
aI2
aI0
aI15
aI5
aI4
aI0
aI0
aI1
aI1
aI13
aI8
aI1
aI0
aI1
aI22
aI1
aI0
aI18
aI3
aI1
aI2
aI0
aI16
aI1
aI6
aa(lp343
S'31373'
p344
aI25
aI3
aI11
aI9
aI2
aI0
aI14
aI6
aI4
aI1
aI0
aI0
aI6
aI12
aI6
aI1
aI3
aI5
aI10
aI5
aI2
aI5
aI11
aI5
aI2
aI2
aI1
aI5
aI16
aI3
aI0
aI0
aI0
aI25
aI0
aI0
aI9
aI8
aI7
aI1
aI0
aI6
aI12
aI7
aa(lp345
S'31400'
p346
aI36
aI24
aI10
aI1
aI1
aI0
aI27
aI4
aI4
aI1
aI0
aI13
aI17
aI6
aI0
aI0
aI20
aI11
aI4
aI0
aI0
aI18
aI13
aI2
aI3
aI0
aI0
aI2
aI13
aI16
aI5
aI0
aI0
aI29
aI6
aI1
aI17
aI15
aI3
aI1
aI0
aI29
aI2
aI5
aa(lp347
S'31405'
p348
aI21
aI11
aI6
aI4
aI0
aI0
aI8
aI9
aI4
aI0
aI0
aI7
aI8
aI6
aI0
aI0
aI8
aI2
aI4
aI4
aI2
aI8
aI7
aI4
aI2
aI0
aI0
aI0
aI9
aI8
aI4
aI1
aI0
aI18
aI1
aI0
aI8
aI8
aI4
aI1
aI0
aI14
aI1
aI6
aa(lp349
S'31501'
p350
aI33
aI6
aI15
aI10
aI2
aI0
aI11
aI13
aI8
aI1
aI0
aI3
aI13
aI11
aI6
aI0
aI2
aI6
aI12
aI11
aI2
aI3
aI14
aI11
aI4
aI1
aI1
aI4
aI12
aI12
aI4
aI0
aI1
aI18
aI10
aI4
aI7
aI12
aI9
aI4
aI1
aI2
aI25
aI6
aa(lp351
S'31502'
p352
aI12
aI6
aI4
aI1
aI0
aI1
aI8
aI3
aI0
aI0
aI1
aI5
aI4
aI1
aI1
aI1
aI2
aI5
aI1
aI3
aI1
aI5
aI3
aI3
aI0
aI1
aI0
aI0
aI7
aI5
aI0
aI0
aI0
aI12
aI0
aI0
aI5
aI5
aI1
aI0
aI1
aI6
aI5
aI1
aa(lp353
S'31520'
p354
aI26
aI3
aI11
aI7
aI5
aI0
aI8
aI9
aI6
aI2
aI1
aI3
aI5
aI9
aI7
aI2
aI3
aI4
aI10
aI4
aI5
aI4
aI14
aI3
aI4
aI1
aI0
aI5
aI17
aI3
aI1
aI0
aI0
aI20
aI3
aI2
aI2
aI12
aI6
aI5
aI1
aI8
aI11
aI7
aa(lp355
S'31522'
p356
aI11
aI6
aI4
aI0
aI1
aI0
aI8
aI0
aI1
aI1
aI0
aI7
aI3
aI0
aI1
aI0
aI5
aI5
aI0
aI1
aI0
aI7
aI2
aI1
aI1
aI0
aI1
aI1
aI3
aI5
aI1
aI0
aI0
aI10
aI0
aI1
aI7
aI3
aI1
aI0
aI0
aI6
aI2
aI3
aa(lp357
S'31533'
p358
aI11
aI4
aI5
aI2
aI0
aI0
aI5
aI5
aI1
aI0
aI0
aI3
aI5
aI1
aI2
aI0
aI2
aI3
aI2
aI2
aI2
aI3
aI6
aI2
aI0
aI0
aI0
aI1
aI6
aI4
aI0
aI0
aI0
aI10
aI1
aI0
aI2
aI6
aI1
aI1
aI0
aI1
aI3
aI6
aa(lp359
S'31534'
p360
aI10
aI0
aI4
aI5
aI1
aI0
aI0
aI6
aI3
aI1
aI0
aI0
aI3
aI6
aI1
aI0
aI0
aI0
aI3
aI5
aI2
aI0
aI5
aI4
aI1
aI0
aI0
aI3
aI6
aI1
aI0
aI0
aI0
aI10
aI0
aI0
aI0
aI1
aI9
aI0
aI0
aI0
aI8
aI2
aa(lp361
S'31540'
p362
aI9
aI3
aI2
aI4
aI0
aI0
aI0
aI4
aI4
aI1
aI0
aI1
aI4
aI3
aI1
aI0
aI1
aI2
aI4
aI1
aI1
aI1
aI2
aI5
aI1
aI0
aI0
aI0
aI4
aI5
aI0
aI0
aI0
aI8
aI0
aI1
aI2
aI3
aI3
aI1
aI0
aI0
aI4
aI5
aa(lp363
S'31605'
p364
aI35
aI5
aI15
aI8
aI5
aI2
aI5
aI15
aI7
aI7
aI1
aI6
aI12
aI8
aI5
aI4
aI4
aI10
aI13
aI5
aI2
aI5
aI12
aI9
aI5
aI3
aI0
aI5
aI21
aI5
aI2
aI0
aI2
aI23
aI4
aI4
aI6
aI10
aI9
aI8
aI1
aI3
aI15
aI14
aa(lp365
S'31606'
p366
aI24
aI12
aI9
aI2
aI0
aI1
aI18
aI4
aI0
aI1
aI1
aI8
aI7
aI6
aI0
aI2
aI5
aI10
aI7
aI1
aI1
aI10
aI10
aI2
aI1
aI1
aI0
aI2
aI10
aI7
aI5
aI0
aI3
aI20
aI1
aI0
aI11
aI8
aI2
aI2
aI1
aI20
aI2
aI2
aa(lp367
S'31631'
p368
aI12
aI5
aI4
aI2
aI1
aI0
aI6
aI2
aI2
aI1
aI1
aI6
aI3
aI0
aI2
aI1
aI5
aI4
aI2
aI1
aI0
aI7
aI2
aI2
aI0
aI1
aI0
aI2
aI10
aI0
aI0
aI0
aI0
aI12
aI0
aI0
aI8
aI2
aI1
aI0
aI0
aI8
aI3
aI1
aa(lp369
S'31700'
p370
aI9
aI1
aI7
aI0
aI1
aI0
aI1
aI5
aI3
aI0
aI0
aI0
aI6
aI3
aI0
aI0
aI0
aI5
aI0
aI3
aI1
aI3
aI5
aI0
aI0
aI1
aI0
aI1
aI6
aI2
aI0
aI0
aI1
aI6
aI1
aI0
aI2
aI4
aI2
aI1
aI0
aI1
aI7
aI1
aa(lp371
S'33236'
p372
aI5
aI5
aI0
aI0
aI0
aI0
aI3
aI1
aI1
aI0
aI0
aI2
aI3
aI0
aI0
aI0
aI0
aI2
aI1
aI2
aI0
aI2
aI3
aI0
aI0
aI0
aI0
aI0
aI4
aI1
aI0
aI0
aI0
aI5
aI0
aI0
aI2
aI3
aI0
aI0
aI0
aI3
aI1
aI1
aa(lp373
S'33253'
p374
aI15
aI12
aI3
aI0
aI0
aI0
aI14
aI1
aI0
aI0
aI0
aI12
aI2
aI1
aI0
aI0
aI9
aI3
aI2
aI1
aI0
aI11
aI4
aI0
aI0
aI0
aI0
aI2
aI12
aI1
aI0
aI0
aI0
aI15
aI0
aI0
aI13
aI2
aI0
aI0
aI0
aI8
aI1
aI6
aa(lp375
S'33255'
p376
aI26
aI10
aI8
aI5
aI2
aI1
aI14
aI8
aI3
aI1
aI0
aI6
aI5
aI6
aI6
aI3
aI9
aI9
aI6
aI1
aI1
aI12
aI9
aI3
aI2
aI0
aI1
aI3
aI18
aI2
aI2
aI0
aI1
aI25
aI0
aI0
aI8
aI8
aI8
aI1
aI1
aI12
aI6
aI8
aa(lp377
S'33257'
p378
aI5
aI2
aI3
aI0
aI0
aI0
aI4
aI1
aI0
aI0
aI0
aI1
aI2
aI1
aI1
aI0
aI2
aI2
aI1
aI0
aI0
aI3
aI2
aI0
aI0
aI0
aI0
aI0
aI5
aI0
aI0
aI0
aI1
aI4
aI0
aI0
aI2
aI3
aI0
aI0
aI0
aI4
aI0
aI1
aa(lp379
S'33323'
p380
aI12
aI1
aI6
aI3
aI2
aI0
aI4
aI6
aI0
aI1
aI1
aI2
aI5
aI4
aI1
aI0
aI2
aI2
aI5
aI3
aI0
aI3
aI5
aI1
aI3
aI0
aI1
aI0
aI9
aI2
aI0
aI0
aI2
aI10
aI0
aI0
aI3
aI2
aI6
aI1
aI0
aI9
aI1
aI2
aa(lp381
S'33471'
p382
aI8
aI4
aI2
aI1
aI0
aI1
aI6
aI1
aI0
aI0
aI1
aI3
aI1
aI4
aI0
aI0
aI3
aI4
aI1
aI0
aI0
aI5
aI1
aI1
aI1
aI0
aI0
aI1
aI3
aI3
aI1
aI0
aI0
aI8
aI0
aI0
aI4
aI2
aI1
aI0
aI1
aI1
aI6
aI1
aa(lp383
S'33472'
p384
aI40
aI25
aI12
aI2
aI1
aI0
aI27
aI10
aI1
aI1
aI1
aI8
aI17
aI13
aI2
aI0
aI8
aI15
aI15
aI2
aI0
aI20
aI17
aI2
aI1
aI0
aI2
aI3
aI21
aI11
aI3
aI1
aI0
aI34
aI5
aI0
aI20
aI14
aI2
aI1
aI2
aI7
aI29
aI4
aa(lp385
S'33480'
p386
aI21
aI9
aI9
aI2
aI1
aI0
aI13
aI6
aI1
aI1
aI0
aI6
aI6
aI8
aI1
aI0
aI5
aI6
aI6
aI4
aI0
aI8
aI10
aI1
aI2
aI0
aI0
aI3
aI16
aI2
aI0
aI0
aI0
aI21
aI0
aI0
aI14
aI4
aI2
aI1
aI0
aI5
aI13
aI3
aa(lp387
S'33482'
p388
aI5
aI4
aI0
aI0
aI0
aI1
aI4
aI0
aI0
aI0
aI1
aI4
aI0
aI0
aI0
aI1
aI3
aI0
aI1
aI0
aI1
aI4
aI0
aI0
aI0
aI1
aI1
aI0
aI0
aI1
aI3
aI1
aI0
aI4
aI0
aI0
aI4
aI0
aI0
aI0
aI1
aI0
aI3
aI2
aa(lp389
S'34020'
p390
aI24
aI3
aI8
aI8
aI3
aI2
aI4
aI7
aI5
aI7
aI1
aI3
aI4
aI4
aI7
aI6
aI1
aI1
aI13
aI5
aI4
aI3
aI8
aI6
aI4
aI3
aI0
aI5
aI13
aI2
aI4
aI0
aI3
aI15
aI3
aI3
aI2
aI5
aI9
aI4
aI4
aI4
aI17
aI3
aa(lp391
S'34029'
p392
aI15
aI9
aI5
aI1
aI0
aI0
aI10
aI4
aI1
aI0
aI0
aI6
aI1
aI7
aI0
aI0
aI5
aI2
aI7
aI0
aI1
aI10
aI2
aI2
aI1
aI0
aI0
aI1
aI6
aI6
aI2
aI0
aI1
aI12
aI2
aI0
aI9
aI4
aI1
aI1
aI0
aI5
aI6
aI2
aa(lp393
S'34031'
p394
aI10
aI6
aI4
aI0
aI0
aI0
aI6
aI2
aI2
aI0
aI0
aI5
aI5
aI0
aI0
aI0
aI6
aI3
aI1
aI0
aI0
aI5
aI4
aI1
aI0
aI0
aI0
aI1
aI2
aI1
aI6
aI1
aI1
aI8
aI0
aI0
aI7
aI2
aI1
aI0
aI0
aI1
aI4
aI5
aa(lp395
S'34120'
p396
aI5
aI3
aI1
aI1
aI0
aI0
aI0
aI1
aI3
aI0
aI1
aI0
aI2
aI1
aI1
aI1
aI1
aI3
aI1
aI0
aI0
aI1
aI2
aI0
aI2
aI0
aI0
aI0
aI2
aI3
aI0
aI0
aI0
aI4
aI1
aI0
aI1
aI3
aI0
aI0
aI1
aI0
aI0
aI0
aa(lp397
S'34127'
p398
aI19
aI11
aI6
aI2
aI0
aI0
aI13
aI6
aI0
aI0
aI0
aI6
aI8
aI4
aI0
aI0
aI3
aI8
aI5
aI2
aI0
aI4
aI9
aI5
aI1
aI0
aI0
aI3
aI12
aI4
aI0
aI0
aI0
aI17
aI1
aI0
aI9
aI9
aI0
aI0
aI1
aI1
aI14
aI4
aa(lp399
S'34210'
p400
aI12
aI1
aI2
aI5
aI4
aI0
aI0
aI5
aI2
aI4
aI1
aI1
aI3
aI7
aI1
aI0
aI1
aI3
aI5
aI3
aI0
aI1
aI2
aI4
aI5
aI0
aI0
aI1
aI7
aI4
aI0
aI0
aI0
aI12
aI0
aI0
aI0
aI6
aI4
aI2
aI0
aI5
aI2
aI5
aa(lp401
S'34220'
p402
aI11
aI4
aI5
aI1
aI1
aI0
aI5
aI4
aI2
aI0
aI0
aI2
aI3
aI2
aI4
aI0
aI2
aI2
aI4
aI2
aI1
aI1
aI5
aI4
aI1
aI0
aI1
aI1
aI7
aI2
aI0
aI0
aI0
aI10
aI1
aI0
aI5
aI2
aI2
aI2
aI0
aI1
aI10
aI0
aa(lp403
S'34229'
p404
aI9
aI3
aI4
aI2
aI0
aI0
aI3
aI2
aI3
aI1
aI0
aI0
aI4
aI4
aI0
aI1
aI2
aI3
aI3
aI1
aI0
aI2
aI1
aI4
aI1
aI1
aI0
aI1
aI5
aI3
aI0
aI0
aI0
aI8
aI1
aI0
aI2
aI4
aI1
aI2
aI0
aI4
aI4
aI1
aa(lp405
S'34302'
p406
aI23
aI10
aI9
aI4
aI0
aI0
aI11
aI9
aI3
aI0
aI0
aI12
aI5
aI5
aI0
aI0
aI8
aI6
aI8
aI0
aI0
aI15
aI6
aI2
aI0
aI0
aI0
aI8
aI13
aI2
aI0
aI0
aI0
aI23
aI0
aI0
aI14
aI5
aI4
aI0
aI0
aI5
aI9
aI8
aa(lp407
S'34311'
p408
aI28
aI16
aI9
aI2
aI1
aI0
aI13
aI11
aI4
aI0
aI0
aI12
aI10
aI4
aI1
aI0
aI9
aI8
aI9
aI1
aI1
aI16
aI10
aI1
aI1
aI0
aI1
aI3
aI21
aI3
aI0
aI0
aI0
aI27
aI1
aI0
aI18
aI6
aI4
aI0
aI0
aI13
aI4
aI10
aa(lp409
S'34318'
p410
aI7
aI4
aI3
aI0
aI0
aI0
aI4
aI3
aI0
aI0
aI0
aI3
aI2
aI2
aI0
aI0
aI3
aI3
aI0
aI0
aI1
aI4
aI2
aI1
aI0
aI0
aI0
aI1
aI6
aI0
aI0
aI0
aI1
aI6
aI0
aI0
aI4
aI2
aI0
aI1
aI0
aI1
aI5
aI1
aa(lp411
S'34319'
p412
aI7
aI3
aI3
aI1
aI0
aI0
aI2
aI4
aI1
aI0
aI0
aI2
aI2
aI2
aI0
aI1
aI2
aI1
aI4
aI0
aI0
aI2
aI2
aI2
aI0
aI1
aI1
aI0
aI5
aI1
aI0
aI0
aI0
aI7
aI0
aI0
aI5
aI1
aI1
aI0
aI0
aI0
aI0
aI0
aa(lp413
S'41000'
p414
aI51
aI17
aI17
aI14
aI3
aI0
aI23
aI18
aI6
aI4
aI0
aI5
aI16
aI17
aI12
aI1
aI3
aI13
aI18
aI15
aI2
aI13
aI24
aI7
aI6
aI1
aI0
aI5
aI24
aI12
aI10
aI0
aI0
aI47
aI4
aI0
aI16
aI20
aI9
aI5
aI1
aI21
aI17
aI13
aa(lp415
S'41010'
p416
aI11
aI1
aI7
aI1
aI2
aI0
aI6
aI4
aI1
aI0
aI0
aI3
aI4
aI3
aI1
aI0
aI2
aI2
aI4
aI2
aI1
aI7
aI2
aI2
aI0
aI0
aI0
aI1
aI8
aI2
aI0
aI0
aI1
aI10
aI0
aI0
aI4
aI5
aI0
aI2
aI0
aI10
aI0
aI1
aa(lp417
S'41012'
p418
aI27
aI15
aI7
aI3
aI1
aI1
aI18
aI6
aI0
aI3
aI0
aI12
aI8
aI4
aI1
aI1
aI5
aI7
aI9
aI6
aI0
aI12
aI11
aI1
aI3
aI0
aI0
aI5
aI12
aI8
aI1
aI0
aI1
aI22
aI3
aI1
aI14
aI8
aI2
aI2
aI1
aI6
aI15
aI6
aa(lp419
S'41015'
p420
aI20
aI8
aI10
aI2
aI0
aI0
aI5
aI9
aI3
aI3
aI0
aI3
aI9
aI3
aI4
aI1
aI1
aI3
aI8
aI6
aI2
aI4
aI4
aI4
aI6
aI2
aI0
aI1
aI14
aI4
aI1
aI0
aI1
aI16
aI1
aI1
aI5
aI6
aI5
aI3
aI1
aI19
aI0
aI1
aa(lp421
S'41020'
p422
aI12
aI9
aI3
aI0
aI0
aI0
aI7
aI5
aI0
aI0
aI0
aI3
aI5
aI4
aI0
aI0
aI0
aI3
aI4
aI4
aI1
aI3
aI6
aI1
aI2
aI0
aI0
aI0
aI6
aI6
aI0
aI0
aI0
aI11
aI1
aI0
aI4
aI8
aI0
aI0
aI0
aI7
aI1
aI4
aa(lp423
S'41030'
p424
aI11
aI6
aI3
aI1
aI1
aI0
aI4
aI6
aI1
aI0
aI0
aI0
aI1
aI6
aI1
aI3
aI1
aI2
aI0
aI4
aI4
aI1
aI0
aI5
aI3
aI2
aI0
aI0
aI2
aI1
aI8
aI0
aI0
aI6
aI3
aI1
aI2
aI4
aI3
aI2
aI0
aI9
aI0
aI2
aa(lp425
S'41031'
p426
aI8
aI2
aI3
aI2
aI1
aI0
aI8
aI0
aI0
aI0
aI0
aI3
aI3
aI2
aI0
aI0
aI3
aI3
aI1
aI1
aI0
aI3
aI5
aI0
aI0
aI0
aI0
aI0
aI5
aI2
aI1
aI0
aI0
aI7
aI0
aI1
aI3
aI3
aI2
aI0
aI0
aI0
aI8
aI0
aa(lp427
S'41035'
p428
aI19
aI7
aI9
aI3
aI0
aI0
aI5
aI12
aI1
aI1
aI0
aI6
aI6
aI5
aI2
aI0
aI1
aI6
aI9
aI3
aI0
aI7
aI8
aI4
aI0
aI0
aI0
aI1
aI7
aI8
aI3
aI0
aI1
aI17
aI0
aI0
aI6
aI11
aI0
aI2
aI0
aI12
aI0
aI7
aa(lp429
S'41045'
p430
aI12
aI0
aI7
aI4
aI1
aI0
aI1
aI4
aI5
aI1
aI1
aI0
aI3
aI6
aI3
aI0
aI1
aI6
aI3
aI1
aI0
aI0
aI8
aI3
aI0
aI1
aI1
aI1
aI6
aI4
aI0
aI0
aI0
aI10
aI1
aI0
aI0
aI6
aI5
aI1
aI0
aI5
aI0
aI6
aa(lp431
S'41051'
p432
aI18
aI9
aI8
aI0
aI0
aI1
aI12
aI5
aI0
aI0
aI1
aI7
aI9
aI1
aI0
aI1
aI4
aI8
aI4
aI2
aI0
aI11
aI6
aI0
aI0
aI1
aI0
aI1
aI13
aI4
aI0
aI0
aI0
aI18
aI0
aI0
aI11
aI7
aI0
aI0
aI0
aI16
aI0
aI2
aa(lp433
S'41102'
p434
aI29
aI19
aI8
aI1
aI0
aI1
aI15
aI12
aI1
aI0
aI1
aI12
aI9
aI5
aI1
aI2
aI8
aI13
aI5
aI2
aI1
aI14
aI11
aI2
aI0
aI1
aI0
aI4
aI20
aI4
aI1
aI0
aI0
aI27
aI2
aI0
aI12
aI14
aI2
aI1
aI0
aI20
aI6
aI3
aa(lp435
S'41112'
p436
aI21
aI9
aI8
aI3
aI0
aI1
aI16
aI2
aI2
aI0
aI1
aI4
aI8
aI7
aI2
aI0
aI3
aI8
aI8
aI1
aI0
aI8
aI10
aI2
aI0
aI1
aI0
aI3
aI17
aI1
aI0
aI0
aI1
aI20
aI0
aI0
aI12
aI6
aI2
aI0
aI1
aI5
aI11
aI5
aa(lp437
S'41202'
p438
aI14
aI4
aI6
aI4
aI0
aI0
aI2
aI8
aI4
aI0
aI0
aI1
aI5
aI3
aI3
aI2
aI1
aI7
aI6
aI0
aI0
aI1
aI9
aI4
aI0
aI0
aI0
aI2
aI7
aI5
aI0
aI0
aI0
aI13
aI1
aI0
aI3
aI6
aI4
aI1
aI0
aI2
aI7
aI4
aa(lp439
S'41203'
p440
aI40
aI28
aI12
aI0
aI0
aI0
aI24
aI14
aI2
aI0
aI0
aI14
aI6
aI13
aI6
aI1
aI7
aI13
aI13
aI5
aI1
aI21
aI17
aI1
aI0
aI0
aI0
aI5
aI25
aI10
aI0
aI0
aI0
aI35
aI5
aI0
aI22
aI11
aI0
aI4
aI2
aI32
aI1
aI5
aa(lp441
S'41263'
p442
aI9
aI4
aI2
aI2
aI1
aI0
aI6
aI2
aI1
aI0
aI0
aI0
aI5
aI3
aI1
aI0
aI4
aI2
aI2
aI1
aI0
aI3
aI5
aI1
aI0
aI0
aI0
aI1
aI6
aI2
aI0
aI0
aI0
aI8
aI1
aI0
aI4
aI4
aI0
aI1
aI0
aI2
aI4
aI3
aa(lp443
S'41271'
p444
aI6
aI4
aI1
aI0
aI0
aI1
aI4
aI0
aI1
aI0
aI1
aI1
aI3
aI1
aI0
aI1
aI0
aI3
aI2
aI0
aI1
aI0
aI3
aI0
aI2
aI1
aI0
aI0
aI0
aI3
aI3
aI0
aI0
aI4
aI2
aI0
aI1
aI3
aI1
aI0
aI1
aI2
aI4
aI0
aa(lp445
S'41312'
p446
aI65
aI29
aI28
aI6
aI2
aI0
aI36
aI25
aI3
aI0
aI1
aI12
aI26
aI15
aI9
aI3
aI8
aI21
aI16
aI13
aI7
aI28
aI31
aI3
aI2
aI1
aI0
aI4
aI37
aI23
aI1
aI1
aI2
aI57
aI4
aI1
aI25
aI28
aI9
aI3
aI0
aI16
aI28
aI19
aa(lp447
S'41342'
p448
aI6
aI3
aI3
aI0
aI0
aI0
aI2
aI4
aI0
aI0
aI0
aI0
aI2
aI3
aI0
aI1
aI0
aI2
aI4
aI0
aI0
aI0
aI2
aI4
aI0
aI0
aI0
aI0
aI0
aI2
aI4
aI1
aI1
aI4
aI0
aI0
aI3
aI3
aI0
aI0
aI0
aI3
aI3
aI0
aa(lp449
S'41344'
p450
aI10
aI2
aI5
aI1
aI1
aI1
aI1
aI7
aI0
aI0
aI2
aI3
aI4
aI2
aI1
aI0
aI1
aI2
aI5
aI1
aI1
aI2
aI4
aI2
aI0
aI2
aI0
aI2
aI8
aI0
aI0
aI0
aI2
aI8
aI0
aI0
aI4
aI3
aI2
aI1
aI0
aI6
aI1
aI3
aa(lp451
S'41401'
p452
aI17
aI9
aI5
aI2
aI1
aI0
aI9
aI5
aI3
aI0
aI0
aI4
aI7
aI3
aI2
aI1
aI6
aI7
aI3
aI1
aI0
aI9
aI6
aI1
aI1
aI0
aI0
aI1
aI11
aI4
aI1
aI0
aI1
aI13
aI3
aI0
aI10
aI4
aI3
aI0
aI0
aI11
aI1
aI5
aa(lp453
S'41402'
p454
aI6
aI3
aI2
aI1
aI0
aI0
aI4
aI2
aI0
aI0
aI0
aI2
aI0
aI3
aI0
aI1
aI1
aI2
aI3
aI0
aI0
aI3
aI3
aI0
aI0
aI0
aI0
aI0
aI5
aI1
aI0
aI0
aI0
aI6
aI0
aI0
aI4
aI1
aI0
aI1
aI0
aI2
aI2
aI2
aa(lp455
S'41409'
p456
aI10
aI9
aI1
aI0
aI0
aI0
aI8
aI2
aI0
aI0
aI0
aI3
aI7
aI0
aI0
aI0
aI4
aI3
aI1
aI2
aI0
aI6
aI1
aI2
aI0
aI0
aI0
aI0
aI8
aI1
aI1
aI0
aI1
aI6
aI3
aI0
aI7
aI2
aI0
aI0
aI1
aI8
aI0
aI2
aa(lp457
S'41422'
p458
aI7
aI3
aI3
aI0
aI1
aI0
aI2
aI4
aI0
aI1
aI0
aI1
aI4
aI1
aI1
aI0
aI1
aI4
aI1
aI1
aI0
aI2
aI3
aI1
aI1
aI0
aI0
aI0
aI5
aI2
aI0
aI0
aI0
aI6
aI1
aI0
aI1
aI5
aI0
aI1
aI0
aI1
aI3
aI3
aa(lp459
S'41501'
p460
aI47
aI16
aI22
aI4
aI3
aI2
aI11
aI23
aI8
aI5
aI0
aI4
aI8
aI6
aI15
aI14
aI7
aI11
aI21
aI5
aI3
aI8
aI17
aI11
aI8
aI3
aI2
aI4
aI17
aI18
aI6
aI1
aI4
aI30
aI7
aI5
aI9
aI20
aI13
aI4
aI1
aI39
aI3
aI5
aa(lp461
S'41502'
p462
aI26
aI14
aI9
aI2
aI1
aI0
aI15
aI7
aI3
aI0
aI1
aI9
aI8
aI3
aI6
aI0
aI4
aI9
aI10
aI3
aI0
aI11
aI9
aI3
aI3
aI0
aI1
aI1
aI5
aI16
aI3
aI0
aI0
aI23
aI3
aI0
aI14
aI9
aI1
aI2
aI0
aI21
aI1
aI4
aa(lp463
S'41511'
p464
aI34
aI23
aI6
aI3
aI1
aI1
aI11
aI16
aI3
aI3
aI1
aI21
aI10
aI0
aI3
aI0
aI9
aI11
aI9
aI4
aI1
aI16
aI13
aI4
aI0
aI0
aI2
aI1
aI18
aI11
aI1
aI0
aI2
aI28
aI3
aI0
aI20
aI9
aI1
aI1
aI2
aI28
aI1
aI4
aa(lp465
S'41560'
p466
aI40
aI35
aI2
aI0
aI1
aI2
aI32
aI4
aI1
aI1
aI2
aI22
aI13
aI2
aI0
aI3
aI22
aI14
aI2
aI0
aI2
aI31
aI5
aI0
aI0
aI4
aI0
aI2
aI10
aI24
aI4
aI0
aI2
aI31
aI5
aI1
aI34
aI2
aI1
aI1
aI2
aI38
aI1
aI1
aa(lp467
S'41603'
p468
aI33
aI4
aI9
aI8
aI9
aI3
aI12
aI9
aI7
aI4
aI1
aI8
aI4
aI11
aI7
aI3
aI5
aI7
aI15
aI3
aI3
aI8
aI9
aI11
aI4
aI1
aI4
aI4
aI18
aI7
aI0
aI1
aI1
aI29
aI1
aI1
aI4
aI11
aI9
aI5
aI3
aI7
aI14
aI12
aa(lp469
S'41612'
p470
aI14
aI13
aI1
aI0
aI0
aI0
aI13
aI1
aI0
aI0
aI0
aI7
aI4
aI2
aI1
aI0
aI4
aI6
aI4
aI0
aI0
aI8
aI4
aI2
aI0
aI0
aI0
aI0
aI4
aI6
aI4
aI1
aI0
aI12
aI1
aI0
aI9
aI4
aI1
aI0
aI0
aI11
aI0
aI3
aa(lp471
S'41616'
p472
aI23
aI7
aI12
aI4
aI0
aI0
aI8
aI9
aI3
aI3
aI0
aI7
aI9
aI6
aI1
aI0
aI4
aI9
aI7
aI1
aI1
aI4
aI12
aI6
aI1
aI0
aI2
aI6
aI13
aI2
aI0
aI0
aI3
aI18
aI2
aI0
aI8
aI10
aI5
aI0
aI0
aI5
aI13
aI5
aa(lp473
S'41617'
p474
aI18
aI5
aI9
aI4
aI0
aI0
aI10
aI6
aI2
aI0
aI0
aI1
aI5
aI7
aI5
aI0
aI3
aI5
aI7
aI2
aI1
aI3
aI10
aI4
aI1
aI0
aI1
aI5
aI9
aI2
aI1
aI0
aI1
aI17
aI0
aI0
aI7
aI8
aI2
aI1
aI0
aI3
aI9
aI6
aa(lp475
S'41618'
p476
aI15
aI3
aI9
aI2
aI1
aI0
aI4
aI7
aI2
aI2
aI0
aI0
aI3
aI4
aI3
aI4
aI0
aI3
aI3
aI5
aI4
aI0
aI5
aI4
aI4
aI2
aI0
aI5
aI9
aI1
aI0
aI0
aI1
aI13
aI0
aI0
aI1
aI7
aI4
aI2
aI1
aI4
aI7
aI4
aa(lp477
S'41650'
p478
aI23
aI2
aI2
aI6
aI12
aI1
aI4
aI4
aI6
aI7
aI2
aI2
aI6
aI2
aI11
aI2
aI1
aI4
aI6
aI9
aI3
aI2
aI3
aI7
aI7
aI4
aI1
aI7
aI13
aI1
aI1
aI0
aI2
aI17
aI3
aI0
aI3
aI3
aI3
aI11
aI3
aI0
aI0
aI0
aa(lp479
S'41651'
p480
aI8
aI4
aI3
aI0
aI1
aI0
aI6
aI1
aI0
aI1
aI0
aI3
aI1
aI2
aI2
aI0
aI1
aI2
aI2
aI3
aI0
aI4
aI2
aI1
aI1
aI0
aI0
aI1
aI6
aI0
aI1
aI0
aI0
aI7
aI0
aI1
aI2
aI4
aI0
aI1
aI1
aI3
aI4
aI1
aa(lp481
S'41659'
p482
aI26
aI7
aI14
aI3
aI1
aI1
aI5
aI15
aI4
aI2
aI0
aI2
aI10
aI9
aI4
aI1
aI2
aI5
aI11
aI5
aI3
aI7
aI11
aI4
aI4
aI0
aI1
aI8
aI16
aI1
aI0
aI0
aI0
aI26
aI0
aI0
aI6
aI12
aI6
aI1
aI1
aI20
aI0
aI6
aa(lp483
S'41704'
p484
aI11
aI5
aI5
aI0
aI1
aI0
aI5
aI5
aI0
aI1
aI0
aI4
aI6
aI0
aI0
aI1
aI2
aI7
aI1
aI1
aI0
aI3
aI7
aI0
aI1
aI0
aI0
aI1
aI10
aI0
aI0
aI0
aI1
aI10
aI0
aI0
aI4
aI5
aI1
aI0
aI1
aI4
aI3
aI4
aa(lp485
S'41713'
p486
aI26
aI3
aI9
aI4
aI9
aI1
aI2
aI9
aI9
aI6
aI0
aI1
aI9
aI7
aI7
aI2
aI3
aI5
aI5
aI9
aI3
aI2
aI10
aI8
aI4
aI2
aI3
aI10
aI10
aI3
aI0
aI1
aI4
aI19
aI2
aI0
aI2
aI8
aI6
aI6
aI4
aI7
aI7
aI12
aa(lp487
S'41801'
p488
aI29
aI19
aI8
aI2
aI0
aI0
aI26
aI3
aI0
aI0
aI0
aI3
aI5
aI17
aI4
aI0
aI3
aI3
aI20
aI3
aI0
aI11
aI8
aI9
aI0
aI0
aI1
aI1
aI13
aI10
aI4
aI0
aI0
aI29
aI0
aI0
aI21
aI7
aI1
aI0
aI0
aI7
aI13
aI8
aa(lp489
S'41812'
p490
aI36
aI11
aI21
aI3
aI1
aI0
aI18
aI12
aI3
aI2
aI0
aI8
aI8
aI15
aI3
aI2
aI7
aI9
aI15
aI4
aI1
aI10
aI12
aI10
aI3
aI1
aI0
aI5
aI18
aI11
aI2
aI0
aI0
aI32
aI3
aI1
aI8
aI22
aI5
aI1
aI0
aI23
aI1
aI12
aa(lp491
S'41814'
p492
aI32
aI5
aI16
aI6
aI4
aI1
aI6
aI13
aI5
aI5
aI2
aI5
aI15
aI7
aI3
aI1
aI2
aI14
aI14
aI1
aI0
aI7
aI14
aI9
aI0
aI1
aI0
aI3
aI24
aI4
aI0
aI0
aI2
aI26
aI3
aI0
aI5
aI16
aI7
aI1
aI2
aI20
aI6
aI5
aa(lp493
S'41842'
p494
aI6
aI3
aI2
aI1
aI0
aI0
aI4
aI1
aI1
aI0
aI0
aI1
aI0
aI3
aI2
aI0
aI0
aI3
aI3
aI0
aI0
aI4
aI0
aI2
aI0
aI0
aI1
aI1
aI1
aI2
aI0
aI0
aI0
aI6
aI0
aI0
aI3
aI2
aI1
aI0
aI0
aI1
aI5
aI0
aa(lp495
S'42005'
p496
aI13
aI2
aI5
aI5
aI1
aI0
aI2
aI4
aI5
aI1
aI1
aI4
aI3
aI3
aI2
aI1
aI1
aI1
aI3
aI5
aI3
aI2
aI3
aI6
aI0
aI2
aI0
aI3
aI9
aI1
aI0
aI0
aI2
aI10
aI1
aI0
aI2
aI4
aI4
aI3
aI0
aI5
aI4
aI4
aa(lp497
S'42011'
p498
aI21
aI5
aI11
aI1
aI2
aI2
aI4
aI10
aI2
aI4
aI0
aI5
aI10
aI2
aI1
aI2
aI2
aI4
aI6
aI5
aI3
aI9
aI6
aI3
aI0
aI2
aI0
aI4
aI13
aI1
aI2
aI1
aI3
aI14
aI1
aI0
aI5
aI8
aI3
aI2
aI2
aI17
aI1
aI2
aa(lp499
S'42021'
p500
aI34
aI1
aI8
aI12
aI9
aI4
aI3
aI11
aI8
aI8
aI4
aI3
aI9
aI14
aI6
aI2
aI2
aI3
aI12
aI12
aI5
aI1
aI11
aI11
aI10
aI1
aI2
aI6
aI25
aI0
aI1
aI0
aI3
aI30
aI1
aI0
aI3
aI5
aI10
aI12
aI3
aI27
aI3
aI4
aa(lp501
S'42042'
p502
aI17
aI4
aI5
aI3
aI5
aI0
aI5
aI5
aI5
aI2
aI0
aI1
aI6
aI6
aI4
aI0
aI3
aI3
aI7
aI4
aI0
aI3
aI5
aI6
aI3
aI0
aI0
aI0
aI12
aI4
aI1
aI0
aI0
aI17
aI0
aI0
aI3
aI8
aI2
aI3
aI1
aI10
aI0
aI6
aa(lp503
S'42062'
p504
aI25
aI2
aI9
aI9
aI3
aI2
aI8
aI8
aI5
aI4
aI0
aI1
aI5
aI13
aI5
aI1
aI3
aI10
aI6
aI4
aI1
aI3
aI10
aI7
aI3
aI1
aI0
aI3
aI19
aI3
aI0
aI0
aI0
aI22
aI3
aI0
aI3
aI7
aI9
aI4
aI2
aI18
aI2
aI4
aa(lp505
S'42101'
p506
aI35
aI15
aI11
aI4
aI5
aI0
aI6
aI17
aI9
aI3
aI0
aI3
aI9
aI10
aI9
aI4
aI9
aI13
aI9
aI4
aI0
aI12
aI9
aI8
aI5
aI1
aI0
aI5
aI25
aI4
aI1
aI0
aI2
aI29
aI3
aI1
aI9
aI17
aI5
aI2
aI1
aI18
aI9
aI8
aa(lp507
S'42107'
p508
aI9
aI2
aI6
aI0
aI1
aI0
aI2
aI5
aI1
aI1
aI0
aI2
aI1
aI5
aI1
aI0
aI1
aI2
aI4
aI1
aI1
aI1
aI2
aI2
aI2
aI2
aI0
aI3
aI5
aI1
aI0
aI0
aI0
aI9
aI0
aI0
aI1
aI5
aI2
aI1
aI0
aI8
aI0
aI1
aa(lp509
S'42270'
p510
aI6
aI1
aI3
aI1
aI1
aI0
aI2
aI2
aI2
aI0
aI0
aI1
aI0
aI3
aI2
aI0
aI0
aI1
aI4
aI1
aI0
aI2
aI3
aI1
aI0
aI0
aI1
aI0
aI4
aI0
aI1
aI0
aI1
aI4
aI0
aI1
aI2
aI3
aI1
aI0
aI0
aI0
aI4
aI2
aa(lp511
S'42340'
p512
aI16
aI3
aI9
aI3
aI1
aI0
aI8
aI5
aI3
aI0
aI0
aI3
aI8
aI4
aI1
aI0
aI4
aI6
aI2
aI4
aI0
aI8
aI4
aI4
aI0
aI0
aI0
aI0
aI15
aI1
aI0
aI0
aI0
aI15
aI0
aI0
aI5
aI9
aI2
aI0
aI0
aI2
aI14
aI0
aa(lp513
S'42406'
p514
aI26
aI4
aI7
aI8
aI7
aI0
aI7
aI10
aI5
aI4
aI0
aI3
aI4
aI9
aI4
aI6
aI2
aI7
aI6
aI8
aI3
aI5
aI6
aI8
aI5
aI2
aI2
aI3
aI18
aI3
aI0
aI0
aI1
aI23
aI2
aI0
aI3
aI9
aI9
aI3
aI2
aI5
aI15
aI5
aa(lp515
S'42415'
p516
aI16
aI9
aI4
aI2
aI1
aI0
aI6
aI5
aI2
aI2
aI1
aI4
aI3
aI4
aI4
aI1
aI2
aI5
aI7
aI1
aI1
aI5
aI9
aI1
aI1
aI0
aI0
aI4
aI9
aI3
aI0
aI0
aI0
aI15
aI1
aI0
aI6
aI6
aI2
aI2
aI0
aI0
aI11
aI5
aa(lp517
S'42421'
p518
aI21
aI6
aI7
aI5
aI3
aI0
aI6
aI8
aI4
aI2
aI1
aI5
aI7
aI4
aI4
aI1
aI1
aI6
aI5
aI7
aI1
aI4
aI6
aI6
aI4
aI1
aI0
aI5
aI11
aI4
aI1
aI0
aI2
aI16
aI3
aI0
aI6
aI8
aI3
aI4
aI0
aI13
aI4
aI4
aa(lp519
S'42429'
p520
aI31
aI16
aI11
aI2
aI1
aI1
aI22
aI5
aI3
aI0
aI1
aI11
aI14
aI4
aI1
aI1
aI12
aI12
aI2
aI4
aI1
aI21
aI7
aI2
aI0
aI1
aI0
aI3
aI20
aI7
aI1
aI0
aI1
aI29
aI1
aI0
aI21
aI7
aI0
aI1
aI2
aI10
aI14
aI7
aa(lp521
S'42430'
p522
aI142
aI27
aI36
aI35
aI27
aI17
aI39
aI44
aI19
aI22
aI17
aI30
aI37
aI37
aI21
aI15
aI15
aI35
aI26
aI26
aI38
aI28
aI32
aI38
aI27
aI16
aI7
aI16
aI60
aI29
aI29
aI0
aI8
aI120
aI11
aI1
aI19
aI35
aI37
aI30
aI20
aI68
aI37
aI36
aa(lp523
S'42580'
p524
aI29
aI1
aI8
aI10
aI9
aI1
aI9
aI11
aI7
aI1
aI1
aI0
aI14
aI11
aI4
aI0
aI4
aI6
aI8
aI8
aI3
aI4
aI11
aI8
aI4
aI2
aI3
aI11
aI12
aI3
aI0
aI0
aI1
aI26
aI1
aI0
aI1
aI8
aI7
aI10
aI3
aI4
aI18
aI7
aa(lp525
S'42582'
p526
aI38
aI2
aI10
aI11
aI8
aI7
aI5
aI6
aI10
aI6
aI10
aI5
aI8
aI6
aI15
aI4
aI4
aI13
aI11
aI4
aI6
aI3
aI15
aI8
aI5
aI7
aI9
aI12
aI16
aI1
aI0
aI0
aI4
aI33
aI0
aI0
aI2
aI11
aI9
aI8
aI8
aI18
aI10
aI9
aa(lp527
S'42583'
p528
aI9
aI2
aI3
aI2
aI2
aI0
aI4
aI4
aI1
aI0
aI0
aI1
aI1
aI4
aI2
aI1
aI0
aI4
aI5
aI0
aI0
aI3
aI3
aI1
aI2
aI0
aI0
aI2
aI6
aI1
aI0
aI0
aI0
aI9
aI0
aI0
aI2
aI5
aI0
aI2
aI0
aI4
aI3
aI2
aa(lp529
S'42584'
p530
aI8
aI5
aI3
aI0
aI0
aI0
aI6
aI1
aI1
aI0
aI0
aI1
aI1
aI4
aI2
aI0
aI1
aI3
aI4
aI0
aI0
aI2
aI2
aI4
aI0
aI0
aI0
aI0
aI2
aI3
aI3
aI0
aI1
aI7
aI0
aI0
aI5
aI2
aI1
aI0
aI0
aI1
aI7
aI0
aa(lp531
S'42610'
p532
aI139
aI5
aI29
aI38
aI38
aI28
aI8
aI32
aI43
aI37
aI17
aI7
aI28
aI48
aI33
aI21
aI11
aI31
aI46
aI30
aI18
aI13
aI35
aI42
aI31
aI16
aI23
aI47
aI60
aI5
aI2
aI3
aI3
aI122
aI7
aI2
aI6
aI27
aI27
aI44
aI33
aI83
aI20
aI34
aa(lp533
S'42872'
p534
aI14
aI2
aI5
aI3
aI4
aI0
aI4
aI4
aI3
aI1
aI2
aI3
aI3
aI5
aI1
aI2
aI3
aI5
aI2
aI2
aI2
aI1
aI5
aI4
aI0
aI3
aI0
aI2
aI10
aI2
aI0
aI0
aI0
aI14
aI0
aI0
aI4
aI3
aI4
aI2
aI1
aI9
aI3
aI2
aa(lp535
S'42875'
p536
aI5
aI1
aI4
aI0
aI0
aI0
aI1
aI3
aI1
aI0
aI0
aI1
aI1
aI1
aI2
aI0
aI1
aI1
aI3
aI0
aI0
aI1
aI2
aI2
aI0
aI0
aI1
aI1
aI3
aI0
aI0
aI0
aI0
aI5
aI0
aI0
aI2
aI2
aI1
aI0
aI0
aI3
aI1
aI1
aa(lp537
S'46000'
p538
aI7
aI4
aI3
aI0
aI0
aI0
aI7
aI0
aI0
aI0
aI0
aI3
aI4
aI0
aI0
aI0
aI3
aI3
aI1
aI0
aI0
aI5
aI2
aI0
aI0
aI0
aI0
aI3
aI4
aI0
aI0
aI0
aI1
aI6
aI0
aI0
aI5
aI2
aI0
aI0
aI0
aI5
aI0
aI2
aa(lp539
S'46440'
p540
aI9
aI9
aI0
aI0
aI0
aI0
aI9
aI0
aI0
aI0
aI0
aI5
aI3
aI1
aI0
aI0
aI4
aI1
aI4
aI0
aI0
aI9
aI0
aI0
aI0
aI0
aI1
aI3
aI4
aI1
aI0
aI1
aI0
aI8
aI0
aI0
aI9
aI0
aI0
aI0
aI0
aI4
aI4
aI1
aa(lp541
S'KU002'
p542
aI39
aI17
aI17
aI4
aI1
aI0
aI8
aI14
aI12
aI4
aI1
aI8
aI19
aI9
aI3
aI0
aI6
aI13
aI11
aI3
aI3
aI7
aI19
aI9
aI3
aI0
aI1
aI6
aI13
aI12
aI5
aI1
aI0
aI24
aI10
aI2
aI8
aI19
aI6
aI4
aI0
aI14
aI15
aI8
aa(lp543
S'KU003'
p544
aI8
aI4
aI2
aI2
aI0
aI0
aI2
aI0
aI3
aI1
aI1
aI4
aI1
aI2
aI0
aI0
aI1
aI0
aI3
aI1
aI2
aI2
aI2
aI3
aI0
aI0
aI0
aI1
aI6
aI0
aI0
aI0
aI1
aI6
aI0
aI0
aI3
aI2
aI2
aI0
aI0
aI3
aI3
aI1
aa(lp545
S'KU004'
p546
aI14
aI1
aI6
aI3
aI4
aI0
aI1
aI1
aI3
aI7
aI2
aI0
aI6
aI3
aI5
aI0
aI1
aI1
aI2
aI6
aI4
aI1
aI1
aI7
aI4
aI1
aI0
aI1
aI6
aI5
aI2
aI0
aI0
aI10
aI4
aI0
aI1
aI4
aI5
aI4
aI0
aI0
aI0
aI0
aa(lp547
S'KU005'
p548
aI7
aI2
aI1
aI3
aI1
aI0
aI2
aI2
aI2
aI1
aI0
aI2
aI3
aI1
aI1
aI0
aI1
aI2
aI1
aI2
aI1
aI3
aI1
aI1
aI1
aI1
aI1
aI0
aI5
aI1
aI0
aI0
aI1
aI5
aI0
aI1
aI1
aI2
aI3
aI1
aI0
aI1
aI5
aI1
aa(lp549
S'KU006'
p550
aI10
aI4
aI3
aI2
aI1
aI0
aI6
aI2
aI1
aI0
aI1
aI1
aI2
aI5
aI0
aI0
aI0
aI3
aI5
aI1
aI1
aI1
aI6
aI3
aI0
aI0
aI0
aI4
aI5
aI1
aI0
aI0
aI0
aI10
aI0
aI0
aI3
aI5
aI2
aI0
aI0
aI4
aI6
aI0
aa(lp551
S'KU009'
p552
aI8
aI2
aI3
aI0
aI2
aI1
aI1
aI3
aI1
aI2
aI1
aI1
aI1
aI2
aI3
aI1
aI1
aI0
aI3
aI2
aI2
aI1
aI3
aI1
aI2
aI1
aI4
aI0
aI3
aI1
aI0
aI0
aI0
aI8
aI0
aI0
aI4
aI1
aI0
aI2
aI1
aI2
aI4
aI2
aa(lp553
S'KU010'
p554
aI9
aI2
aI3
aI3
aI1
aI0
aI3
aI3
aI3
aI0
aI0
aI1
aI4
aI3
aI0
aI1
aI2
aI1
aI6
aI0
aI0
aI3
aI2
aI4
aI0
aI0
aI0
aI0
aI5
aI4
aI0
aI0
aI0
aI9
aI0
aI0
aI3
aI2
aI2
aI2
aI0
aI0
aI6
aI3
aa(lp555
S'KU011'
p556
aI8
aI2
aI3
aI2
aI1
aI0
aI1
aI2
aI2
aI1
aI2
aI0
aI5
aI2
aI1
aI0
aI0
aI2
aI2
aI2
aI2
aI2
aI3
aI1
aI2
aI0
aI0
aI1
aI4
aI2
aI1
aI0
aI0
aI4
aI1
aI3
aI1
aI2
aI3
aI2
aI0
aI0
aI1
aI7
aa(lp557
S'KU012'
p558
aI12
aI6
aI3
aI3
aI0
aI0
aI3
aI5
aI3
aI0
aI1
aI5
aI5
aI2
aI0
aI0
aI5
aI1
aI6
aI0
aI0
aI7
aI4
aI1
aI0
aI0
aI1
aI2
aI7
aI2
aI0
aI0
aI1
aI11
aI0
aI0
aI7
aI2
aI1
aI1
aI1
aI0
aI10
aI2
aa.