(lp0
(lp1
S'26027'
p2
aI282
aI51
aI1
aI0
aI0
aI23
aI47
aI36
aI58
aI44
aI38
aI36
aa(lp3
S'01005'
p4
aI1048
aI30
aI3
aI0
aI278
aI0
aI0
aI2
aI105
aI366
aI217
aI69
aa(lp5
S'01015'
p6
aI91
aI15
aI0
aI0
aI0
aI3
aI15
aI9
aI17
aI33
aI10
aI4
aa(lp7
S'01016'
p8
aI6
aI2
aI0
aI0
aI0
aI0
aI3
aI0
aI2
aI1
aI0
aI0
aa(lp9
S'01017'
p10
aI9
aI22
aI1
aI0
aI0
aI1
aI3
aI3
aI0
aI1
aI0
aI1
aa(lp11
S'01025'
p12
aI54
aI4
aI0
aI0
aI0
aI0
aI2
aI1
aI8
aI13
aI22
aI8
aa(lp13
S'01035'
p14
aI269
aI78
aI3
aI0
aI0
aI15
aI55
aI22
aI61
aI62
aI39
aI15
aa(lp15
S'01037'
p16
aI28
aI3
aI0
aI0
aI0
aI0
aI2
aI5
aI7
aI6
aI4
aI4
aa.