(lp0
(lp1
S'26027'
p2
aI89
aI9
aI19
aI33
aI18
aI10
aI7
aI22
aI32
aI18
aI10
aI14
aI18
aI34
aI17
aI5
aI2
aI8
aI37
aI17
aI24
aI4
aI20
aI41
aI13
aI9
aI12
aI26
aI45
aI5
aI0
aI0
aI9
aI72
aI6
aI1
aI5
aI26
aI29
aI15
aI13
aI23
aI32
aI32
aa(lp3
S'01005'
p4
aI608
aI337
aI170
aI62
aI27
aI12
aI274
aI204
aI81
aI38
aI8
aI176
aI258
aI114
aI49
aI8
aI104
aI185
aI207
aI88
aI19
aI163
aI245
aI134
aI52
aI9
aI6
aI99
aI279
aI158
aI61
aI1
aI17
aI451
aI116
aI18
aI188
aI250
aI87
aI68
aI12
aI380
aI103
aI119
aa(lp5
S'01006'
p6
aI24
aI16
aI4
aI2
aI2
aI0
aI11
aI7
aI4
aI2
aI0
aI10
aI5
aI5
aI3
aI0
aI3
aI11
aI5
aI2
aI3
aI11
aI9
aI1
aI2
aI0
aI1
aI4
aI10
aI5
aI4
aI0
aI1
aI21
aI1
aI0
aI16
aI4
aI2
aI2
aI0
aI15
aI4
aI5
aa(lp7
S'01017'
p8
aI138
aI59
aI59
aI12
aI4
aI4
aI44
aI62
aI23
aI6
aI2
aI41
aI69
aI15
aI10
aI3
aI24
aI54
aI45
aI14
aI1
aI56
aI44
aI25
aI11
aI2
aI9
aI39
aI79
aI9
aI1
aI2
aI3
aI128
aI4
aI0
aI60
aI58
aI9
aI6
aI4
aI59
aI38
aI40
aa(lp9
S'01025'
p10
aI28
aI21
aI6
aI0
aI1
aI0
aI18
aI6
aI4
aI0
aI0
aI20
aI6
aI2
aI0
aI0
aI11
aI10
aI1
aI5
aI1
aI15
aI8
aI4
aI1
aI0
aI1
aI2
aI9
aI11
aI5
aI1
aI0
aI25
aI2
aI0
aI16
aI9
aI1
aI1
aI0
aI24
aI3
aI1
aa(lp11
S'01035'
p12
aI162
aI54
aI81
aI17
aI7
aI3
aI65
aI56
aI27
aI8
aI6
aI65
aI62
aI22
aI8
aI5
aI32
aI56
aI45
aI20
aI9
aI40
aI65
aI40
aI13
aI4
aI2
aI38
aI96
aI24
aI2
aI0
aI3
aI141
aI13
aI1
aI49
aI76
aI18
aI15
aI3
aI26
aI84
aI52
aa(lp13
S'01037'
p14
aI23
aI13
aI5
aI3
aI1
aI1
aI7
aI7
aI9
aI0
aI0
aI6
aI11
aI5
aI1
aI0
aI5
aI6
aI6
aI3
aI3
aI7
aI5
aI5
aI5
aI0
aI1
aI1
aI9
aI7
aI5
aI0
aI1
aI18
aI3
aI1
aI9
aI8
aI4
aI2
aI0
aI5
aI13
aI5
aa.